   1               		.file	"Endpoint.c"
   2               	__SP_H__ = 0x3e
   3               	__SP_L__ = 0x3d
   4               	__SREG__ = 0x3f
   5               	__tmp_reg__ = 0
   6               	__zero_reg__ = 1
   7               		.text
   8               	.Ltext0:
   9               		.cfi_sections	.debug_frame
  10               		.section	.text.Endpoint_BytesToEPSizeMaskDynamic,"ax",@progbits
  11               	.global	Endpoint_BytesToEPSizeMaskDynamic
  13               	Endpoint_BytesToEPSizeMaskDynamic:
  14               	.LFB64:
  15               		.file 1 "../../LUFA/Drivers/USB/LowLevel/Endpoint.c"
   1:../../LUFA/Drivers/USB/LowLevel/Endpoint.c **** /*
   2:../../LUFA/Drivers/USB/LowLevel/Endpoint.c ****              LUFA Library
   3:../../LUFA/Drivers/USB/LowLevel/Endpoint.c ****      Copyright (C) Dean Camera, 2010.
   4:../../LUFA/Drivers/USB/LowLevel/Endpoint.c ****               
   5:../../LUFA/Drivers/USB/LowLevel/Endpoint.c ****   dean [at] fourwalledcubicle [dot] com
   6:../../LUFA/Drivers/USB/LowLevel/Endpoint.c ****       www.fourwalledcubicle.com
   7:../../LUFA/Drivers/USB/LowLevel/Endpoint.c **** */
   8:../../LUFA/Drivers/USB/LowLevel/Endpoint.c **** 
   9:../../LUFA/Drivers/USB/LowLevel/Endpoint.c **** /*
  10:../../LUFA/Drivers/USB/LowLevel/Endpoint.c ****   Copyright 2010  Dean Camera (dean [at] fourwalledcubicle [dot] com)
  11:../../LUFA/Drivers/USB/LowLevel/Endpoint.c **** 
  12:../../LUFA/Drivers/USB/LowLevel/Endpoint.c ****   Permission to use, copy, modify, distribute, and sell this 
  13:../../LUFA/Drivers/USB/LowLevel/Endpoint.c ****   software and its documentation for any purpose is hereby granted
  14:../../LUFA/Drivers/USB/LowLevel/Endpoint.c ****   without fee, provided that the above copyright notice appear in 
  15:../../LUFA/Drivers/USB/LowLevel/Endpoint.c ****   all copies and that both that the copyright notice and this
  16:../../LUFA/Drivers/USB/LowLevel/Endpoint.c ****   permission notice and warranty disclaimer appear in supporting 
  17:../../LUFA/Drivers/USB/LowLevel/Endpoint.c ****   documentation, and that the name of the author not be used in 
  18:../../LUFA/Drivers/USB/LowLevel/Endpoint.c ****   advertising or publicity pertaining to distribution of the 
  19:../../LUFA/Drivers/USB/LowLevel/Endpoint.c ****   software without specific, written prior permission.
  20:../../LUFA/Drivers/USB/LowLevel/Endpoint.c **** 
  21:../../LUFA/Drivers/USB/LowLevel/Endpoint.c ****   The author disclaim all warranties with regard to this
  22:../../LUFA/Drivers/USB/LowLevel/Endpoint.c ****   software, including all implied warranties of merchantability
  23:../../LUFA/Drivers/USB/LowLevel/Endpoint.c ****   and fitness.  In no event shall the author be liable for any
  24:../../LUFA/Drivers/USB/LowLevel/Endpoint.c ****   special, indirect or consequential damages or any damages
  25:../../LUFA/Drivers/USB/LowLevel/Endpoint.c ****   whatsoever resulting from loss of use, data or profits, whether
  26:../../LUFA/Drivers/USB/LowLevel/Endpoint.c ****   in an action of contract, negligence or other tortious action,
  27:../../LUFA/Drivers/USB/LowLevel/Endpoint.c ****   arising out of or in connection with the use or performance of
  28:../../LUFA/Drivers/USB/LowLevel/Endpoint.c ****   this software.
  29:../../LUFA/Drivers/USB/LowLevel/Endpoint.c **** */
  30:../../LUFA/Drivers/USB/LowLevel/Endpoint.c **** 
  31:../../LUFA/Drivers/USB/LowLevel/Endpoint.c **** #define  __INCLUDE_FROM_USB_DRIVER
  32:../../LUFA/Drivers/USB/LowLevel/Endpoint.c **** #include "../HighLevel/USBMode.h"
  33:../../LUFA/Drivers/USB/LowLevel/Endpoint.c **** 
  34:../../LUFA/Drivers/USB/LowLevel/Endpoint.c **** #if defined(USB_CAN_BE_DEVICE)
  35:../../LUFA/Drivers/USB/LowLevel/Endpoint.c **** 
  36:../../LUFA/Drivers/USB/LowLevel/Endpoint.c **** #define  __INCLUDE_FROM_ENDPOINT_C
  37:../../LUFA/Drivers/USB/LowLevel/Endpoint.c **** #include "Endpoint.h"
  38:../../LUFA/Drivers/USB/LowLevel/Endpoint.c **** 
  39:../../LUFA/Drivers/USB/LowLevel/Endpoint.c **** #if !defined(FIXED_CONTROL_ENDPOINT_SIZE)
  40:../../LUFA/Drivers/USB/LowLevel/Endpoint.c **** uint8_t USB_ControlEndpointSize = ENDPOINT_CONTROLEP_DEFAULT_SIZE;
  41:../../LUFA/Drivers/USB/LowLevel/Endpoint.c **** #endif
  42:../../LUFA/Drivers/USB/LowLevel/Endpoint.c **** 
  43:../../LUFA/Drivers/USB/LowLevel/Endpoint.c **** uint8_t Endpoint_BytesToEPSizeMaskDynamic(const uint16_t Size)
  44:../../LUFA/Drivers/USB/LowLevel/Endpoint.c **** {
  16               		.loc 1 44 0
  17               		.cfi_startproc
  18               	.LVL0:
  19               	/* prologue: function */
  20               	/* frame size = 0 */
  21               	/* stack size = 0 */
  22               	.L__stack_usage = 0
  23 0000 AC01      		movw r20,r24
  24               	.LVL1:
  25               	.LBB259:
  26               	.LBB260:
  27               		.file 2 "../../LUFA/Drivers/USB/LowLevel/Endpoint.h"
   1:../../LUFA/Drivers/USB/LowLevel/Endpoint.h **** /*
   2:../../LUFA/Drivers/USB/LowLevel/Endpoint.h ****              LUFA Library
   3:../../LUFA/Drivers/USB/LowLevel/Endpoint.h ****      Copyright (C) Dean Camera, 2010.
   4:../../LUFA/Drivers/USB/LowLevel/Endpoint.h ****               
   5:../../LUFA/Drivers/USB/LowLevel/Endpoint.h ****   dean [at] fourwalledcubicle [dot] com
   6:../../LUFA/Drivers/USB/LowLevel/Endpoint.h ****       www.fourwalledcubicle.com
   7:../../LUFA/Drivers/USB/LowLevel/Endpoint.h **** */
   8:../../LUFA/Drivers/USB/LowLevel/Endpoint.h **** 
   9:../../LUFA/Drivers/USB/LowLevel/Endpoint.h **** /*
  10:../../LUFA/Drivers/USB/LowLevel/Endpoint.h ****   Copyright 2010  Dean Camera (dean [at] fourwalledcubicle [dot] com)
  11:../../LUFA/Drivers/USB/LowLevel/Endpoint.h **** 
  12:../../LUFA/Drivers/USB/LowLevel/Endpoint.h ****   Permission to use, copy, modify, distribute, and sell this 
  13:../../LUFA/Drivers/USB/LowLevel/Endpoint.h ****   software and its documentation for any purpose is hereby granted
  14:../../LUFA/Drivers/USB/LowLevel/Endpoint.h ****   without fee, provided that the above copyright notice appear in 
  15:../../LUFA/Drivers/USB/LowLevel/Endpoint.h ****   all copies and that both that the copyright notice and this
  16:../../LUFA/Drivers/USB/LowLevel/Endpoint.h ****   permission notice and warranty disclaimer appear in supporting 
  17:../../LUFA/Drivers/USB/LowLevel/Endpoint.h ****   documentation, and that the name of the author not be used in 
  18:../../LUFA/Drivers/USB/LowLevel/Endpoint.h ****   advertising or publicity pertaining to distribution of the 
  19:../../LUFA/Drivers/USB/LowLevel/Endpoint.h ****   software without specific, written prior permission.
  20:../../LUFA/Drivers/USB/LowLevel/Endpoint.h **** 
  21:../../LUFA/Drivers/USB/LowLevel/Endpoint.h ****   The author disclaim all warranties with regard to this
  22:../../LUFA/Drivers/USB/LowLevel/Endpoint.h ****   software, including all implied warranties of merchantability
  23:../../LUFA/Drivers/USB/LowLevel/Endpoint.h ****   and fitness.  In no event shall the author be liable for any
  24:../../LUFA/Drivers/USB/LowLevel/Endpoint.h ****   special, indirect or consequential damages or any damages
  25:../../LUFA/Drivers/USB/LowLevel/Endpoint.h ****   whatsoever resulting from loss of use, data or profits, whether
  26:../../LUFA/Drivers/USB/LowLevel/Endpoint.h ****   in an action of contract, negligence or other tortious action,
  27:../../LUFA/Drivers/USB/LowLevel/Endpoint.h ****   arising out of or in connection with the use or performance of
  28:../../LUFA/Drivers/USB/LowLevel/Endpoint.h ****   this software.
  29:../../LUFA/Drivers/USB/LowLevel/Endpoint.h **** */
  30:../../LUFA/Drivers/USB/LowLevel/Endpoint.h **** 
  31:../../LUFA/Drivers/USB/LowLevel/Endpoint.h **** /** \file
  32:../../LUFA/Drivers/USB/LowLevel/Endpoint.h ****  *  \brief USB device endpoint management definitions.
  33:../../LUFA/Drivers/USB/LowLevel/Endpoint.h ****  *
  34:../../LUFA/Drivers/USB/LowLevel/Endpoint.h ****  *  This file contains structures, function prototypes and macros related to the management of the 
  35:../../LUFA/Drivers/USB/LowLevel/Endpoint.h ****  *  data endpoints when the library is initialized in USB device mode.
  36:../../LUFA/Drivers/USB/LowLevel/Endpoint.h ****  *
  37:../../LUFA/Drivers/USB/LowLevel/Endpoint.h ****  *  \note This file should not be included directly. It is automatically included as needed by the 
  38:../../LUFA/Drivers/USB/LowLevel/Endpoint.h ****  *        dispatch header located in LUFA/Drivers/USB/USB.h.
  39:../../LUFA/Drivers/USB/LowLevel/Endpoint.h ****  */
  40:../../LUFA/Drivers/USB/LowLevel/Endpoint.h **** 
  41:../../LUFA/Drivers/USB/LowLevel/Endpoint.h **** /** \ingroup Group_USB
  42:../../LUFA/Drivers/USB/LowLevel/Endpoint.h ****  *  @defgroup Group_EndpointManagement Endpoint Management
  43:../../LUFA/Drivers/USB/LowLevel/Endpoint.h ****  *
  44:../../LUFA/Drivers/USB/LowLevel/Endpoint.h ****  *  Functions, macros and enums related to endpoint management when in USB Device mode. This
  45:../../LUFA/Drivers/USB/LowLevel/Endpoint.h ****  *  module contains the endpoint management macros, as well as endpoint interrupt and data
  46:../../LUFA/Drivers/USB/LowLevel/Endpoint.h ****  *  send/receive functions for various data types.
  47:../../LUFA/Drivers/USB/LowLevel/Endpoint.h ****  *
  48:../../LUFA/Drivers/USB/LowLevel/Endpoint.h ****  *  @{
  49:../../LUFA/Drivers/USB/LowLevel/Endpoint.h ****  */
  50:../../LUFA/Drivers/USB/LowLevel/Endpoint.h **** 
  51:../../LUFA/Drivers/USB/LowLevel/Endpoint.h **** /** @defgroup Group_EndpointRW Endpoint Data Reading and Writing
  52:../../LUFA/Drivers/USB/LowLevel/Endpoint.h ****  *
  53:../../LUFA/Drivers/USB/LowLevel/Endpoint.h ****  *  Functions, macros, variables, enums and types related to data reading and writing from and to e
  54:../../LUFA/Drivers/USB/LowLevel/Endpoint.h ****  */
  55:../../LUFA/Drivers/USB/LowLevel/Endpoint.h ****  
  56:../../LUFA/Drivers/USB/LowLevel/Endpoint.h **** /** \ingroup Group_EndpointRW  
  57:../../LUFA/Drivers/USB/LowLevel/Endpoint.h ****  *  @defgroup Group_EndpointPrimitiveRW Read/Write of Primitive Data Types
  58:../../LUFA/Drivers/USB/LowLevel/Endpoint.h ****  *
  59:../../LUFA/Drivers/USB/LowLevel/Endpoint.h ****  *  Functions, macros, variables, enums and types related to data reading and writing of primitive 
  60:../../LUFA/Drivers/USB/LowLevel/Endpoint.h ****  *  from and to endpoints.
  61:../../LUFA/Drivers/USB/LowLevel/Endpoint.h ****  */ 
  62:../../LUFA/Drivers/USB/LowLevel/Endpoint.h **** 
  63:../../LUFA/Drivers/USB/LowLevel/Endpoint.h **** /** \ingroup Group_EndpointRW  
  64:../../LUFA/Drivers/USB/LowLevel/Endpoint.h ****  *  @defgroup Group_EndpointStreamRW Read/Write of Multi-Byte Streams
  65:../../LUFA/Drivers/USB/LowLevel/Endpoint.h ****  *
  66:../../LUFA/Drivers/USB/LowLevel/Endpoint.h ****  *  Functions, macros, variables, enums and types related to data reading and writing of data strea
  67:../../LUFA/Drivers/USB/LowLevel/Endpoint.h ****  *  and to endpoints.
  68:../../LUFA/Drivers/USB/LowLevel/Endpoint.h ****  */ 
  69:../../LUFA/Drivers/USB/LowLevel/Endpoint.h **** 
  70:../../LUFA/Drivers/USB/LowLevel/Endpoint.h **** /** @defgroup Group_EndpointPacketManagement Endpoint Packet Management
  71:../../LUFA/Drivers/USB/LowLevel/Endpoint.h ****  *
  72:../../LUFA/Drivers/USB/LowLevel/Endpoint.h ****  *  Functions, macros, variables, enums and types related to packet management of endpoints.
  73:../../LUFA/Drivers/USB/LowLevel/Endpoint.h ****  */
  74:../../LUFA/Drivers/USB/LowLevel/Endpoint.h **** 
  75:../../LUFA/Drivers/USB/LowLevel/Endpoint.h **** #ifndef __ENDPOINT_H__
  76:../../LUFA/Drivers/USB/LowLevel/Endpoint.h **** #define __ENDPOINT_H__
  77:../../LUFA/Drivers/USB/LowLevel/Endpoint.h **** 
  78:../../LUFA/Drivers/USB/LowLevel/Endpoint.h **** 	/* Includes: */
  79:../../LUFA/Drivers/USB/LowLevel/Endpoint.h **** 		#include <avr/io.h>
  80:../../LUFA/Drivers/USB/LowLevel/Endpoint.h **** 		#include <avr/pgmspace.h>
  81:../../LUFA/Drivers/USB/LowLevel/Endpoint.h **** 		#include <avr/eeprom.h>
  82:../../LUFA/Drivers/USB/LowLevel/Endpoint.h **** 		#include <stdbool.h>
  83:../../LUFA/Drivers/USB/LowLevel/Endpoint.h **** 
  84:../../LUFA/Drivers/USB/LowLevel/Endpoint.h **** 		#include "../../../Common/Common.h"
  85:../../LUFA/Drivers/USB/LowLevel/Endpoint.h **** 		#include "../HighLevel/USBTask.h"
  86:../../LUFA/Drivers/USB/LowLevel/Endpoint.h **** 		#include "USBInterrupt.h"
  87:../../LUFA/Drivers/USB/LowLevel/Endpoint.h **** 
  88:../../LUFA/Drivers/USB/LowLevel/Endpoint.h **** 		#if !defined(NO_STREAM_CALLBACKS) || defined(__DOXYGEN__)
  89:../../LUFA/Drivers/USB/LowLevel/Endpoint.h **** 			#include "../HighLevel/StreamCallbacks.h"
  90:../../LUFA/Drivers/USB/LowLevel/Endpoint.h **** 		#endif
  91:../../LUFA/Drivers/USB/LowLevel/Endpoint.h **** 		
  92:../../LUFA/Drivers/USB/LowLevel/Endpoint.h **** 	/* Enable C linkage for C++ Compilers: */
  93:../../LUFA/Drivers/USB/LowLevel/Endpoint.h **** 		#if defined(__cplusplus)
  94:../../LUFA/Drivers/USB/LowLevel/Endpoint.h **** 			extern "C" {
  95:../../LUFA/Drivers/USB/LowLevel/Endpoint.h **** 		#endif
  96:../../LUFA/Drivers/USB/LowLevel/Endpoint.h **** 
  97:../../LUFA/Drivers/USB/LowLevel/Endpoint.h **** 	/* Preprocessor Checks: */
  98:../../LUFA/Drivers/USB/LowLevel/Endpoint.h **** 		#if !defined(__INCLUDE_FROM_USB_DRIVER)
  99:../../LUFA/Drivers/USB/LowLevel/Endpoint.h **** 			#error Do not include this file directly. Include LUFA/Drivers/USB/USB.h instead.
 100:../../LUFA/Drivers/USB/LowLevel/Endpoint.h **** 		#endif
 101:../../LUFA/Drivers/USB/LowLevel/Endpoint.h **** 		
 102:../../LUFA/Drivers/USB/LowLevel/Endpoint.h **** 	/* Public Interface - May be used in end-application: */
 103:../../LUFA/Drivers/USB/LowLevel/Endpoint.h **** 		/* Macros: */
 104:../../LUFA/Drivers/USB/LowLevel/Endpoint.h **** 			/** Endpoint data direction mask for \ref Endpoint_ConfigureEndpoint(). This indicates that the 
 105:../../LUFA/Drivers/USB/LowLevel/Endpoint.h **** 			 *  should be initialized in the OUT direction - i.e. data flows from host to device.
 106:../../LUFA/Drivers/USB/LowLevel/Endpoint.h **** 			 */
 107:../../LUFA/Drivers/USB/LowLevel/Endpoint.h **** 			#define ENDPOINT_DIR_OUT                      (0 << EPDIR)
 108:../../LUFA/Drivers/USB/LowLevel/Endpoint.h **** 
 109:../../LUFA/Drivers/USB/LowLevel/Endpoint.h **** 			/** Endpoint data direction mask for \ref Endpoint_ConfigureEndpoint(). This indicates that the 
 110:../../LUFA/Drivers/USB/LowLevel/Endpoint.h **** 			 *  should be initialized in the IN direction - i.e. data flows from device to host.
 111:../../LUFA/Drivers/USB/LowLevel/Endpoint.h **** 			 */
 112:../../LUFA/Drivers/USB/LowLevel/Endpoint.h **** 			#define ENDPOINT_DIR_IN                       (1 << EPDIR)
 113:../../LUFA/Drivers/USB/LowLevel/Endpoint.h **** 
 114:../../LUFA/Drivers/USB/LowLevel/Endpoint.h **** 			/** Mask for the bank mode selection for the \ref Endpoint_ConfigureEndpoint() macro. This indic
 115:../../LUFA/Drivers/USB/LowLevel/Endpoint.h **** 			 *  that the endpoint should have one single bank, which requires less USB FIFO memory but resul
 116:../../LUFA/Drivers/USB/LowLevel/Endpoint.h **** 			 *  in slower transfers as only one USB device (the AVR or the host) can access the endpoint's
 117:../../LUFA/Drivers/USB/LowLevel/Endpoint.h **** 			 *  bank at the one time.
 118:../../LUFA/Drivers/USB/LowLevel/Endpoint.h **** 			 */
 119:../../LUFA/Drivers/USB/LowLevel/Endpoint.h **** 			#define ENDPOINT_BANK_SINGLE                  (0 << EPBK0)
 120:../../LUFA/Drivers/USB/LowLevel/Endpoint.h **** 
 121:../../LUFA/Drivers/USB/LowLevel/Endpoint.h **** 			/** Mask for the bank mode selection for the \ref Endpoint_ConfigureEndpoint() macro. This indic
 122:../../LUFA/Drivers/USB/LowLevel/Endpoint.h **** 			 *  that the endpoint should have two banks, which requires more USB FIFO memory but results
 123:../../LUFA/Drivers/USB/LowLevel/Endpoint.h **** 			 *  in faster transfers as one USB device (the AVR or the host) can access one bank while the ot
 124:../../LUFA/Drivers/USB/LowLevel/Endpoint.h **** 			 *  accesses the second bank.
 125:../../LUFA/Drivers/USB/LowLevel/Endpoint.h **** 			 */
 126:../../LUFA/Drivers/USB/LowLevel/Endpoint.h **** 			#define ENDPOINT_BANK_DOUBLE                  (1 << EPBK0)
 127:../../LUFA/Drivers/USB/LowLevel/Endpoint.h **** 			
 128:../../LUFA/Drivers/USB/LowLevel/Endpoint.h **** 			/** Endpoint address for the default control endpoint, which always resides in address 0. This i
 129:../../LUFA/Drivers/USB/LowLevel/Endpoint.h **** 			 *  defined for convenience to give more readable code when used with the endpoint macros.
 130:../../LUFA/Drivers/USB/LowLevel/Endpoint.h **** 			 */
 131:../../LUFA/Drivers/USB/LowLevel/Endpoint.h **** 			#define ENDPOINT_CONTROLEP                    0
 132:../../LUFA/Drivers/USB/LowLevel/Endpoint.h **** 
 133:../../LUFA/Drivers/USB/LowLevel/Endpoint.h **** 			#if (!defined(FIXED_CONTROL_ENDPOINT_SIZE) || defined(__DOXYGEN__))
 134:../../LUFA/Drivers/USB/LowLevel/Endpoint.h **** 				/** Default size of the default control endpoint's bank, until altered by the control endpoint 
 135:../../LUFA/Drivers/USB/LowLevel/Endpoint.h **** 				 *  value in the device descriptor. Not available if the FIXED_CONTROL_ENDPOINT_SIZE token is d
 136:../../LUFA/Drivers/USB/LowLevel/Endpoint.h **** 				 */
 137:../../LUFA/Drivers/USB/LowLevel/Endpoint.h **** 				#define ENDPOINT_CONTROLEP_DEFAULT_SIZE   8
 138:../../LUFA/Drivers/USB/LowLevel/Endpoint.h **** 			#endif
 139:../../LUFA/Drivers/USB/LowLevel/Endpoint.h **** 			
 140:../../LUFA/Drivers/USB/LowLevel/Endpoint.h **** 			/** Endpoint number mask, for masking against endpoint addresses to retrieve the endpoint's
 141:../../LUFA/Drivers/USB/LowLevel/Endpoint.h **** 			 *  numerical address in the device.
 142:../../LUFA/Drivers/USB/LowLevel/Endpoint.h **** 			 */
 143:../../LUFA/Drivers/USB/LowLevel/Endpoint.h **** 			#define ENDPOINT_EPNUM_MASK                   0x07
 144:../../LUFA/Drivers/USB/LowLevel/Endpoint.h **** 
 145:../../LUFA/Drivers/USB/LowLevel/Endpoint.h **** 			/** Endpoint direction mask, for masking against endpoint addresses to retrieve the endpoint's
 146:../../LUFA/Drivers/USB/LowLevel/Endpoint.h **** 			 *  direction for comparing with the ENDPOINT_DESCRIPTOR_DIR_* masks.
 147:../../LUFA/Drivers/USB/LowLevel/Endpoint.h **** 			 */
 148:../../LUFA/Drivers/USB/LowLevel/Endpoint.h **** 			#define ENDPOINT_EPDIR_MASK                   0x80
 149:../../LUFA/Drivers/USB/LowLevel/Endpoint.h **** 
 150:../../LUFA/Drivers/USB/LowLevel/Endpoint.h **** 			/** Endpoint bank size mask, for masking against endpoint addresses to retrieve the endpoint's
 151:../../LUFA/Drivers/USB/LowLevel/Endpoint.h **** 			 *  bank size in the device.
 152:../../LUFA/Drivers/USB/LowLevel/Endpoint.h **** 			 */
 153:../../LUFA/Drivers/USB/LowLevel/Endpoint.h **** 			#define ENDPOINT_EPSIZE_MASK                  0x7F
 154:../../LUFA/Drivers/USB/LowLevel/Endpoint.h **** 			
 155:../../LUFA/Drivers/USB/LowLevel/Endpoint.h **** 			/** Maximum size in bytes of a given endpoint.
 156:../../LUFA/Drivers/USB/LowLevel/Endpoint.h **** 			 *
 157:../../LUFA/Drivers/USB/LowLevel/Endpoint.h **** 			 *  \param[in] n  Endpoint number, a value between 0 and (ENDPOINT_TOTAL_ENDPOINTS - 1)
 158:../../LUFA/Drivers/USB/LowLevel/Endpoint.h **** 			 */				
 159:../../LUFA/Drivers/USB/LowLevel/Endpoint.h **** 			#define ENDPOINT_MAX_SIZE(n)                  _ENDPOINT_GET_MAXSIZE(n)
 160:../../LUFA/Drivers/USB/LowLevel/Endpoint.h **** 
 161:../../LUFA/Drivers/USB/LowLevel/Endpoint.h **** 			/** Indicates if the given endpoint supports double banking.
 162:../../LUFA/Drivers/USB/LowLevel/Endpoint.h **** 			 *
 163:../../LUFA/Drivers/USB/LowLevel/Endpoint.h **** 			 *  \param[in] n  Endpoint number, a value between 0 and (ENDPOINT_TOTAL_ENDPOINTS - 1)
 164:../../LUFA/Drivers/USB/LowLevel/Endpoint.h **** 			 */				
 165:../../LUFA/Drivers/USB/LowLevel/Endpoint.h **** 			#define ENDPOINT_DOUBLEBANK_SUPPORTED(n)      _ENDPOINT_GET_DOUBLEBANK(n)
 166:../../LUFA/Drivers/USB/LowLevel/Endpoint.h **** 
 167:../../LUFA/Drivers/USB/LowLevel/Endpoint.h **** 			#if !defined(CONTROL_ONLY_DEVICE)
 168:../../LUFA/Drivers/USB/LowLevel/Endpoint.h **** 				#if defined(USB_SERIES_4_AVR) || defined(USB_SERIES_6_AVR) || defined(USB_SERIES_7_AVR) || defi
 169:../../LUFA/Drivers/USB/LowLevel/Endpoint.h **** 					/** Total number of endpoints (including the default control endpoint at address 0) which may
 170:../../LUFA/Drivers/USB/LowLevel/Endpoint.h **** 					 *  be used in the device. Different USB AVR models support different amounts of endpoints,
 171:../../LUFA/Drivers/USB/LowLevel/Endpoint.h **** 					 *  this value reflects the maximum number of endpoints for the currently selected AVR model.
 172:../../LUFA/Drivers/USB/LowLevel/Endpoint.h **** 					 */
 173:../../LUFA/Drivers/USB/LowLevel/Endpoint.h **** 					#define ENDPOINT_TOTAL_ENDPOINTS      7
 174:../../LUFA/Drivers/USB/LowLevel/Endpoint.h **** 				#else
 175:../../LUFA/Drivers/USB/LowLevel/Endpoint.h **** 					#define ENDPOINT_TOTAL_ENDPOINTS      5
 176:../../LUFA/Drivers/USB/LowLevel/Endpoint.h **** 				#endif
 177:../../LUFA/Drivers/USB/LowLevel/Endpoint.h **** 			#else
 178:../../LUFA/Drivers/USB/LowLevel/Endpoint.h **** 				#define ENDPOINT_TOTAL_ENDPOINTS          1
 179:../../LUFA/Drivers/USB/LowLevel/Endpoint.h **** 			#endif
 180:../../LUFA/Drivers/USB/LowLevel/Endpoint.h **** 
 181:../../LUFA/Drivers/USB/LowLevel/Endpoint.h **** 		/* Enums: */
 182:../../LUFA/Drivers/USB/LowLevel/Endpoint.h **** 			/** Enum for the possible error return codes of the \ref Endpoint_WaitUntilReady() function.
 183:../../LUFA/Drivers/USB/LowLevel/Endpoint.h **** 			 *
 184:../../LUFA/Drivers/USB/LowLevel/Endpoint.h **** 			 *  \ingroup Group_EndpointRW
 185:../../LUFA/Drivers/USB/LowLevel/Endpoint.h **** 			 */
 186:../../LUFA/Drivers/USB/LowLevel/Endpoint.h **** 			enum Endpoint_WaitUntilReady_ErrorCodes_t
 187:../../LUFA/Drivers/USB/LowLevel/Endpoint.h **** 			{
 188:../../LUFA/Drivers/USB/LowLevel/Endpoint.h **** 				ENDPOINT_READYWAIT_NoError                 = 0, /**< Endpoint is ready for next packet, no erro
 189:../../LUFA/Drivers/USB/LowLevel/Endpoint.h **** 				ENDPOINT_READYWAIT_EndpointStalled         = 1, /**< The endpoint was stalled during the stream
 190:../../LUFA/Drivers/USB/LowLevel/Endpoint.h **** 				                                                 *   transfer by the host or device.
 191:../../LUFA/Drivers/USB/LowLevel/Endpoint.h **** 				                                                 */
 192:../../LUFA/Drivers/USB/LowLevel/Endpoint.h **** 				ENDPOINT_READYWAIT_DeviceDisconnected      = 2,	/**< Device was disconnected from the host whil
 193:../../LUFA/Drivers/USB/LowLevel/Endpoint.h **** 				                                                 *   waiting for the endpoint to become ready.
 194:../../LUFA/Drivers/USB/LowLevel/Endpoint.h **** 				                                                 */
 195:../../LUFA/Drivers/USB/LowLevel/Endpoint.h **** 				ENDPOINT_READYWAIT_BusSuspended            = 3, /**< The USB bus has been suspended by the host
 196:../../LUFA/Drivers/USB/LowLevel/Endpoint.h **** 				                                                 *   no USB endpoint traffic can occur until th
 197:../../LUFA/Drivers/USB/LowLevel/Endpoint.h **** 				                                                 *   has resumed.
 198:../../LUFA/Drivers/USB/LowLevel/Endpoint.h **** 				                                                 */
 199:../../LUFA/Drivers/USB/LowLevel/Endpoint.h **** 				ENDPOINT_READYWAIT_Timeout                 = 4, /**< The host failed to accept or send the next
 200:../../LUFA/Drivers/USB/LowLevel/Endpoint.h **** 				                                                 *   within the software timeout period set by 
 201:../../LUFA/Drivers/USB/LowLevel/Endpoint.h **** 				                                                 *   \ref USB_STREAM_TIMEOUT_MS macro.
 202:../../LUFA/Drivers/USB/LowLevel/Endpoint.h **** 				                                                 */
 203:../../LUFA/Drivers/USB/LowLevel/Endpoint.h **** 			};
 204:../../LUFA/Drivers/USB/LowLevel/Endpoint.h **** 		
 205:../../LUFA/Drivers/USB/LowLevel/Endpoint.h **** 			/** Enum for the possible error return codes of the Endpoint_*_Stream_* functions.
 206:../../LUFA/Drivers/USB/LowLevel/Endpoint.h **** 			 *
 207:../../LUFA/Drivers/USB/LowLevel/Endpoint.h **** 			 *  \ingroup Group_EndpointStreamRW
 208:../../LUFA/Drivers/USB/LowLevel/Endpoint.h **** 			 */
 209:../../LUFA/Drivers/USB/LowLevel/Endpoint.h **** 			enum Endpoint_Stream_RW_ErrorCodes_t
 210:../../LUFA/Drivers/USB/LowLevel/Endpoint.h **** 			{
 211:../../LUFA/Drivers/USB/LowLevel/Endpoint.h **** 				ENDPOINT_RWSTREAM_NoError            = 0, /**< Command completed successfully, no error. */
 212:../../LUFA/Drivers/USB/LowLevel/Endpoint.h **** 				ENDPOINT_RWSTREAM_EndpointStalled    = 1, /**< The endpoint was stalled during the stream
 213:../../LUFA/Drivers/USB/LowLevel/Endpoint.h **** 				                                           *   transfer by the host or device.
 214:../../LUFA/Drivers/USB/LowLevel/Endpoint.h **** 				                                           */
 215:../../LUFA/Drivers/USB/LowLevel/Endpoint.h **** 				ENDPOINT_RWSTREAM_DeviceDisconnected = 2, /**< Device was disconnected from the host during
 216:../../LUFA/Drivers/USB/LowLevel/Endpoint.h **** 				                                           *   the transfer.
 217:../../LUFA/Drivers/USB/LowLevel/Endpoint.h **** 				                                           */
 218:../../LUFA/Drivers/USB/LowLevel/Endpoint.h **** 				ENDPOINT_RWSTREAM_BusSuspended       = 3, /**< The USB bus has been suspended by the host and
 219:../../LUFA/Drivers/USB/LowLevel/Endpoint.h **** 				                                           *   no USB endpoint traffic can occur until the bus
 220:../../LUFA/Drivers/USB/LowLevel/Endpoint.h **** 				                                           *   has resumed.
 221:../../LUFA/Drivers/USB/LowLevel/Endpoint.h **** 				                                           */
 222:../../LUFA/Drivers/USB/LowLevel/Endpoint.h **** 				ENDPOINT_RWSTREAM_Timeout            = 4, /**< The host failed to accept or send the next packe
 223:../../LUFA/Drivers/USB/LowLevel/Endpoint.h **** 				                                           *   within the software timeout period set by the
 224:../../LUFA/Drivers/USB/LowLevel/Endpoint.h **** 				                                           *   \ref USB_STREAM_TIMEOUT_MS macro.
 225:../../LUFA/Drivers/USB/LowLevel/Endpoint.h **** 				                                           */
 226:../../LUFA/Drivers/USB/LowLevel/Endpoint.h **** 				ENDPOINT_RWSTREAM_CallbackAborted    = 5, /**< Indicates that the stream's callback function
 227:../../LUFA/Drivers/USB/LowLevel/Endpoint.h **** 			                                               *   aborted the transfer early.
 228:../../LUFA/Drivers/USB/LowLevel/Endpoint.h **** 				                                           */
 229:../../LUFA/Drivers/USB/LowLevel/Endpoint.h **** 			};
 230:../../LUFA/Drivers/USB/LowLevel/Endpoint.h **** 			
 231:../../LUFA/Drivers/USB/LowLevel/Endpoint.h **** 			/** Enum for the possible error return codes of the Endpoint_*_Control_Stream_* functions..
 232:../../LUFA/Drivers/USB/LowLevel/Endpoint.h **** 			 *
 233:../../LUFA/Drivers/USB/LowLevel/Endpoint.h **** 			 *  \ingroup Group_EndpointStreamRW
 234:../../LUFA/Drivers/USB/LowLevel/Endpoint.h **** 			 */
 235:../../LUFA/Drivers/USB/LowLevel/Endpoint.h **** 			enum Endpoint_ControlStream_RW_ErrorCodes_t
 236:../../LUFA/Drivers/USB/LowLevel/Endpoint.h **** 			{
 237:../../LUFA/Drivers/USB/LowLevel/Endpoint.h **** 				ENDPOINT_RWCSTREAM_NoError            = 0, /**< Command completed successfully, no error. */
 238:../../LUFA/Drivers/USB/LowLevel/Endpoint.h **** 				ENDPOINT_RWCSTREAM_HostAborted        = 1, /**< The aborted the transfer prematurely. */
 239:../../LUFA/Drivers/USB/LowLevel/Endpoint.h **** 				ENDPOINT_RWCSTREAM_DeviceDisconnected = 2, /**< Device was disconnected from the host during
 240:../../LUFA/Drivers/USB/LowLevel/Endpoint.h **** 				                                            *   the transfer.
 241:../../LUFA/Drivers/USB/LowLevel/Endpoint.h **** 				                                            */
 242:../../LUFA/Drivers/USB/LowLevel/Endpoint.h **** 				ENDPOINT_RWCSTREAM_BusSuspended       = 3, /**< The USB bus has been suspended by the host and
 243:../../LUFA/Drivers/USB/LowLevel/Endpoint.h **** 				                                            *   no USB endpoint traffic can occur until the bus
 244:../../LUFA/Drivers/USB/LowLevel/Endpoint.h **** 				                                            *   has resumed.
 245:../../LUFA/Drivers/USB/LowLevel/Endpoint.h **** 				                                            */
 246:../../LUFA/Drivers/USB/LowLevel/Endpoint.h **** 			};
 247:../../LUFA/Drivers/USB/LowLevel/Endpoint.h **** 
 248:../../LUFA/Drivers/USB/LowLevel/Endpoint.h **** 		/* Inline Functions: */
 249:../../LUFA/Drivers/USB/LowLevel/Endpoint.h **** 			/** Indicates the number of bytes currently stored in the current endpoint's selected bank.
 250:../../LUFA/Drivers/USB/LowLevel/Endpoint.h **** 			 *
 251:../../LUFA/Drivers/USB/LowLevel/Endpoint.h **** 			 *  \note The return width of this function may differ, depending on the maximum endpoint bank s
 252:../../LUFA/Drivers/USB/LowLevel/Endpoint.h **** 			 *        of the selected AVR model.
 253:../../LUFA/Drivers/USB/LowLevel/Endpoint.h **** 			 *
 254:../../LUFA/Drivers/USB/LowLevel/Endpoint.h **** 			 *  \ingroup Group_EndpointRW
 255:../../LUFA/Drivers/USB/LowLevel/Endpoint.h **** 			 *
 256:../../LUFA/Drivers/USB/LowLevel/Endpoint.h **** 			 *  \return Total number of bytes in the currently selected Endpoint's FIFO buffer.
 257:../../LUFA/Drivers/USB/LowLevel/Endpoint.h **** 			 */
 258:../../LUFA/Drivers/USB/LowLevel/Endpoint.h **** 			static inline uint16_t Endpoint_BytesInEndpoint(void) ATTR_WARN_UNUSED_RESULT ATTR_ALWAYS_INLINE
 259:../../LUFA/Drivers/USB/LowLevel/Endpoint.h **** 			static inline uint16_t Endpoint_BytesInEndpoint(void)
 260:../../LUFA/Drivers/USB/LowLevel/Endpoint.h **** 			{
 261:../../LUFA/Drivers/USB/LowLevel/Endpoint.h **** 				#if defined(USB_SERIES_6_AVR) || defined(USB_SERIES_7_AVR)
 262:../../LUFA/Drivers/USB/LowLevel/Endpoint.h **** 					return UEBCX;
 263:../../LUFA/Drivers/USB/LowLevel/Endpoint.h **** 				#elif defined(USB_SERIES_4_AVR)
 264:../../LUFA/Drivers/USB/LowLevel/Endpoint.h **** 					return (((uint16_t)UEBCHX << 8) | UEBCLX);
 265:../../LUFA/Drivers/USB/LowLevel/Endpoint.h **** 				#elif defined(USB_SERIES_2_AVR)
 266:../../LUFA/Drivers/USB/LowLevel/Endpoint.h **** 					return UEBCLX;
 267:../../LUFA/Drivers/USB/LowLevel/Endpoint.h **** 				#endif
 268:../../LUFA/Drivers/USB/LowLevel/Endpoint.h **** 			}
 269:../../LUFA/Drivers/USB/LowLevel/Endpoint.h **** 		
 270:../../LUFA/Drivers/USB/LowLevel/Endpoint.h **** 			/** Get the endpoint address of the currently selected endpoint. This is typically used to save
 271:../../LUFA/Drivers/USB/LowLevel/Endpoint.h **** 			 *  the currently selected endpoint number so that it can be restored after another endpoint has
 272:../../LUFA/Drivers/USB/LowLevel/Endpoint.h **** 			 *  been manipulated.
 273:../../LUFA/Drivers/USB/LowLevel/Endpoint.h **** 			 *
 274:../../LUFA/Drivers/USB/LowLevel/Endpoint.h **** 			 *  \return Index of the currently selected endpoint.
 275:../../LUFA/Drivers/USB/LowLevel/Endpoint.h **** 			 */
 276:../../LUFA/Drivers/USB/LowLevel/Endpoint.h **** 			static inline uint8_t Endpoint_GetCurrentEndpoint(void) ATTR_WARN_UNUSED_RESULT ATTR_ALWAYS_INLI
 277:../../LUFA/Drivers/USB/LowLevel/Endpoint.h **** 			static inline uint8_t Endpoint_GetCurrentEndpoint(void)
 278:../../LUFA/Drivers/USB/LowLevel/Endpoint.h **** 			{
 279:../../LUFA/Drivers/USB/LowLevel/Endpoint.h **** 				#if !defined(CONTROL_ONLY_DEVICE)
 280:../../LUFA/Drivers/USB/LowLevel/Endpoint.h **** 					return (UENUM & ENDPOINT_EPNUM_MASK);
 281:../../LUFA/Drivers/USB/LowLevel/Endpoint.h **** 				#else
 282:../../LUFA/Drivers/USB/LowLevel/Endpoint.h **** 					return ENDPOINT_CONTROLEP;
 283:../../LUFA/Drivers/USB/LowLevel/Endpoint.h **** 				#endif
 284:../../LUFA/Drivers/USB/LowLevel/Endpoint.h **** 			}
 285:../../LUFA/Drivers/USB/LowLevel/Endpoint.h **** 			
 286:../../LUFA/Drivers/USB/LowLevel/Endpoint.h **** 			/** Selects the given endpoint number. If the address from the device descriptors is used, the
 287:../../LUFA/Drivers/USB/LowLevel/Endpoint.h **** 			 *  value should be masked with the \ref ENDPOINT_EPNUM_MASK constant to extract only the endpoi
 288:../../LUFA/Drivers/USB/LowLevel/Endpoint.h **** 			 *  number (and discarding the endpoint direction bit).
 289:../../LUFA/Drivers/USB/LowLevel/Endpoint.h **** 			 *
 290:../../LUFA/Drivers/USB/LowLevel/Endpoint.h **** 			 *  Any endpoint operations which do not require the endpoint number to be indicated will operat
 291:../../LUFA/Drivers/USB/LowLevel/Endpoint.h **** 			 *  the currently selected endpoint.
 292:../../LUFA/Drivers/USB/LowLevel/Endpoint.h **** 			 *
 293:../../LUFA/Drivers/USB/LowLevel/Endpoint.h **** 			 *  \param[in] EndpointNumber Endpoint number to select.
 294:../../LUFA/Drivers/USB/LowLevel/Endpoint.h **** 			 */
 295:../../LUFA/Drivers/USB/LowLevel/Endpoint.h **** 			static inline void Endpoint_SelectEndpoint(const uint8_t EndpointNumber) ATTR_ALWAYS_INLINE;
 296:../../LUFA/Drivers/USB/LowLevel/Endpoint.h **** 			static inline void Endpoint_SelectEndpoint(const uint8_t EndpointNumber)
 297:../../LUFA/Drivers/USB/LowLevel/Endpoint.h **** 			{
 298:../../LUFA/Drivers/USB/LowLevel/Endpoint.h **** 				#if !defined(CONTROL_ONLY_DEVICE)
 299:../../LUFA/Drivers/USB/LowLevel/Endpoint.h **** 					UENUM = EndpointNumber;
 300:../../LUFA/Drivers/USB/LowLevel/Endpoint.h **** 				#endif			
 301:../../LUFA/Drivers/USB/LowLevel/Endpoint.h **** 			}
 302:../../LUFA/Drivers/USB/LowLevel/Endpoint.h **** 			
 303:../../LUFA/Drivers/USB/LowLevel/Endpoint.h **** 			/** Resets the endpoint bank FIFO. This clears all the endpoint banks and resets the USB control
 304:../../LUFA/Drivers/USB/LowLevel/Endpoint.h **** 			 *  In and Out pointers to the bank's contents.
 305:../../LUFA/Drivers/USB/LowLevel/Endpoint.h **** 			 *
 306:../../LUFA/Drivers/USB/LowLevel/Endpoint.h **** 			 *  \param[in] EndpointNumber Endpoint number whose FIFO buffers are to be reset.
 307:../../LUFA/Drivers/USB/LowLevel/Endpoint.h **** 			 */
 308:../../LUFA/Drivers/USB/LowLevel/Endpoint.h **** 			static inline void Endpoint_ResetFIFO(const uint8_t EndpointNumber) ATTR_ALWAYS_INLINE;
 309:../../LUFA/Drivers/USB/LowLevel/Endpoint.h **** 			static inline void Endpoint_ResetFIFO(const uint8_t EndpointNumber)
 310:../../LUFA/Drivers/USB/LowLevel/Endpoint.h **** 			{
 311:../../LUFA/Drivers/USB/LowLevel/Endpoint.h **** 				UERST = (1 << EndpointNumber);
 312:../../LUFA/Drivers/USB/LowLevel/Endpoint.h **** 				UERST = 0;
 313:../../LUFA/Drivers/USB/LowLevel/Endpoint.h **** 			}
 314:../../LUFA/Drivers/USB/LowLevel/Endpoint.h **** 			
 315:../../LUFA/Drivers/USB/LowLevel/Endpoint.h **** 			/** Enables the currently selected endpoint so that data can be sent and received through it to
 316:../../LUFA/Drivers/USB/LowLevel/Endpoint.h **** 			 *  and from a host.
 317:../../LUFA/Drivers/USB/LowLevel/Endpoint.h **** 			 *
 318:../../LUFA/Drivers/USB/LowLevel/Endpoint.h **** 			 *  \note Endpoints must first be configured properly via \ref Endpoint_ConfigureEndpoint().
 319:../../LUFA/Drivers/USB/LowLevel/Endpoint.h **** 			 */
 320:../../LUFA/Drivers/USB/LowLevel/Endpoint.h **** 			static inline void Endpoint_EnableEndpoint(void) ATTR_ALWAYS_INLINE;
 321:../../LUFA/Drivers/USB/LowLevel/Endpoint.h **** 			static inline void Endpoint_EnableEndpoint(void)
 322:../../LUFA/Drivers/USB/LowLevel/Endpoint.h **** 			{
 323:../../LUFA/Drivers/USB/LowLevel/Endpoint.h **** 				UECONX |= (1 << EPEN);
 324:../../LUFA/Drivers/USB/LowLevel/Endpoint.h **** 			}
 325:../../LUFA/Drivers/USB/LowLevel/Endpoint.h **** 
 326:../../LUFA/Drivers/USB/LowLevel/Endpoint.h **** 			/** Disables the currently selected endpoint so that data cannot be sent and received through it
 327:../../LUFA/Drivers/USB/LowLevel/Endpoint.h **** 			 *  to and from a host.
 328:../../LUFA/Drivers/USB/LowLevel/Endpoint.h **** 			 */
 329:../../LUFA/Drivers/USB/LowLevel/Endpoint.h **** 			static inline void Endpoint_DisableEndpoint(void) ATTR_ALWAYS_INLINE;
 330:../../LUFA/Drivers/USB/LowLevel/Endpoint.h **** 			static inline void Endpoint_DisableEndpoint(void)
 331:../../LUFA/Drivers/USB/LowLevel/Endpoint.h **** 			{
 332:../../LUFA/Drivers/USB/LowLevel/Endpoint.h **** 				UECONX &= ~(1 << EPEN);
 333:../../LUFA/Drivers/USB/LowLevel/Endpoint.h **** 			}
 334:../../LUFA/Drivers/USB/LowLevel/Endpoint.h **** 			
 335:../../LUFA/Drivers/USB/LowLevel/Endpoint.h **** 			/** Determines if the currently selected endpoint is enabled, but not necessarily configured.
 336:../../LUFA/Drivers/USB/LowLevel/Endpoint.h **** 			 *
 337:../../LUFA/Drivers/USB/LowLevel/Endpoint.h **** 			 * \return Boolean True if the currently selected endpoint is enabled, false otherwise.
 338:../../LUFA/Drivers/USB/LowLevel/Endpoint.h **** 			 */
 339:../../LUFA/Drivers/USB/LowLevel/Endpoint.h **** 			static inline bool Endpoint_IsEnabled(void) ATTR_WARN_UNUSED_RESULT ATTR_ALWAYS_INLINE;
 340:../../LUFA/Drivers/USB/LowLevel/Endpoint.h **** 			static inline bool Endpoint_IsEnabled(void)
 341:../../LUFA/Drivers/USB/LowLevel/Endpoint.h **** 			{
 342:../../LUFA/Drivers/USB/LowLevel/Endpoint.h **** 				return ((UECONX & (1 << EPEN)) ? true : false);
 343:../../LUFA/Drivers/USB/LowLevel/Endpoint.h **** 			}
 344:../../LUFA/Drivers/USB/LowLevel/Endpoint.h **** 			
 345:../../LUFA/Drivers/USB/LowLevel/Endpoint.h **** 			/** Determines if the currently selected endpoint may be read from (if data is waiting in the en
 346:../../LUFA/Drivers/USB/LowLevel/Endpoint.h **** 			 *  bank and the endpoint is an OUT direction, or if the bank is not yet full if the endpoint is
 347:../../LUFA/Drivers/USB/LowLevel/Endpoint.h **** 			 *  direction). This function will return false if an error has occurred in the endpoint, if the
 348:../../LUFA/Drivers/USB/LowLevel/Endpoint.h **** 			 *  is an OUT direction and no packet (or an empty packet) has been received, or if the endpoint
 349:../../LUFA/Drivers/USB/LowLevel/Endpoint.h **** 			 *  direction and the endpoint bank is full.
 350:../../LUFA/Drivers/USB/LowLevel/Endpoint.h **** 			 *
 351:../../LUFA/Drivers/USB/LowLevel/Endpoint.h **** 			 *  \ingroup Group_EndpointPacketManagement
 352:../../LUFA/Drivers/USB/LowLevel/Endpoint.h **** 			 *
 353:../../LUFA/Drivers/USB/LowLevel/Endpoint.h **** 			 *  \return Boolean true if the currently selected endpoint may be read from or written to, depe
 354:../../LUFA/Drivers/USB/LowLevel/Endpoint.h **** 			 */
 355:../../LUFA/Drivers/USB/LowLevel/Endpoint.h **** 			static inline bool Endpoint_IsReadWriteAllowed(void) ATTR_WARN_UNUSED_RESULT ATTR_ALWAYS_INLINE;
 356:../../LUFA/Drivers/USB/LowLevel/Endpoint.h **** 			static inline bool Endpoint_IsReadWriteAllowed(void)
 357:../../LUFA/Drivers/USB/LowLevel/Endpoint.h **** 			{
 358:../../LUFA/Drivers/USB/LowLevel/Endpoint.h **** 				return ((UEINTX & (1 << RWAL)) ? true : false);
 359:../../LUFA/Drivers/USB/LowLevel/Endpoint.h **** 			}
 360:../../LUFA/Drivers/USB/LowLevel/Endpoint.h **** 			
 361:../../LUFA/Drivers/USB/LowLevel/Endpoint.h **** 			/** Determines if the currently selected endpoint is configured.
 362:../../LUFA/Drivers/USB/LowLevel/Endpoint.h **** 			 *
 363:../../LUFA/Drivers/USB/LowLevel/Endpoint.h **** 			 *  \return Boolean true if the currently selected endpoint has been configured, false otherwise
 364:../../LUFA/Drivers/USB/LowLevel/Endpoint.h **** 			 */
 365:../../LUFA/Drivers/USB/LowLevel/Endpoint.h **** 			static inline bool Endpoint_IsConfigured(void) ATTR_WARN_UNUSED_RESULT ATTR_ALWAYS_INLINE;
 366:../../LUFA/Drivers/USB/LowLevel/Endpoint.h **** 			static inline bool Endpoint_IsConfigured(void)
 367:../../LUFA/Drivers/USB/LowLevel/Endpoint.h **** 			{
 368:../../LUFA/Drivers/USB/LowLevel/Endpoint.h **** 				return ((UESTA0X & (1 << CFGOK)) ? true : false);
 369:../../LUFA/Drivers/USB/LowLevel/Endpoint.h **** 			}
 370:../../LUFA/Drivers/USB/LowLevel/Endpoint.h **** 			
 371:../../LUFA/Drivers/USB/LowLevel/Endpoint.h **** 			/** Returns a mask indicating which INTERRUPT type endpoints have interrupted - i.e. their
 372:../../LUFA/Drivers/USB/LowLevel/Endpoint.h **** 			 *  interrupt duration has elapsed. Which endpoints have interrupted can be determined by
 373:../../LUFA/Drivers/USB/LowLevel/Endpoint.h **** 			 *  masking the return value against (1 << {Endpoint Number}).
 374:../../LUFA/Drivers/USB/LowLevel/Endpoint.h **** 			 *
 375:../../LUFA/Drivers/USB/LowLevel/Endpoint.h **** 			 *  \return Mask whose bits indicate which endpoints have interrupted.
 376:../../LUFA/Drivers/USB/LowLevel/Endpoint.h **** 			 */
 377:../../LUFA/Drivers/USB/LowLevel/Endpoint.h **** 			static inline uint8_t Endpoint_GetEndpointInterrupts(void) ATTR_WARN_UNUSED_RESULT ATTR_ALWAYS_I
 378:../../LUFA/Drivers/USB/LowLevel/Endpoint.h **** 			static inline uint8_t Endpoint_GetEndpointInterrupts(void)
 379:../../LUFA/Drivers/USB/LowLevel/Endpoint.h **** 			{
 380:../../LUFA/Drivers/USB/LowLevel/Endpoint.h **** 				return UEINT;
 381:../../LUFA/Drivers/USB/LowLevel/Endpoint.h **** 			}
 382:../../LUFA/Drivers/USB/LowLevel/Endpoint.h **** 			
 383:../../LUFA/Drivers/USB/LowLevel/Endpoint.h **** 			/** Determines if the specified endpoint number has interrupted (valid only for INTERRUPT type
 384:../../LUFA/Drivers/USB/LowLevel/Endpoint.h **** 			 *  endpoints).
 385:../../LUFA/Drivers/USB/LowLevel/Endpoint.h **** 			 *
 386:../../LUFA/Drivers/USB/LowLevel/Endpoint.h **** 			 *  \param[in] EndpointNumber  Index of the endpoint whose interrupt flag should be tested.
 387:../../LUFA/Drivers/USB/LowLevel/Endpoint.h **** 			 *
 388:../../LUFA/Drivers/USB/LowLevel/Endpoint.h **** 			 *  \return Boolean true if the specified endpoint has interrupted, false otherwise.
 389:../../LUFA/Drivers/USB/LowLevel/Endpoint.h **** 			 */
 390:../../LUFA/Drivers/USB/LowLevel/Endpoint.h **** 			static inline bool Endpoint_HasEndpointInterrupted(const uint8_t EndpointNumber) ATTR_WARN_UNUSE
 391:../../LUFA/Drivers/USB/LowLevel/Endpoint.h **** 			static inline bool Endpoint_HasEndpointInterrupted(const uint8_t EndpointNumber)
 392:../../LUFA/Drivers/USB/LowLevel/Endpoint.h **** 			{
 393:../../LUFA/Drivers/USB/LowLevel/Endpoint.h **** 				return ((UEINT & (1 << EndpointNumber)) ? true : false);
 394:../../LUFA/Drivers/USB/LowLevel/Endpoint.h **** 			}
 395:../../LUFA/Drivers/USB/LowLevel/Endpoint.h **** 			
 396:../../LUFA/Drivers/USB/LowLevel/Endpoint.h **** 			/** Determines if the selected IN endpoint is ready for a new packet.
 397:../../LUFA/Drivers/USB/LowLevel/Endpoint.h **** 			 *
 398:../../LUFA/Drivers/USB/LowLevel/Endpoint.h **** 			 *  \ingroup Group_EndpointPacketManagement
 399:../../LUFA/Drivers/USB/LowLevel/Endpoint.h **** 			 *
 400:../../LUFA/Drivers/USB/LowLevel/Endpoint.h **** 			 *  \return Boolean true if the current endpoint is ready for an IN packet, false otherwise.
 401:../../LUFA/Drivers/USB/LowLevel/Endpoint.h **** 			 */
 402:../../LUFA/Drivers/USB/LowLevel/Endpoint.h **** 			static inline bool Endpoint_IsINReady(void) ATTR_WARN_UNUSED_RESULT ATTR_ALWAYS_INLINE;
 403:../../LUFA/Drivers/USB/LowLevel/Endpoint.h **** 			static inline bool Endpoint_IsINReady(void)
 404:../../LUFA/Drivers/USB/LowLevel/Endpoint.h **** 			{
 405:../../LUFA/Drivers/USB/LowLevel/Endpoint.h **** 				return ((UEINTX & (1 << TXINI))  ? true : false);
 406:../../LUFA/Drivers/USB/LowLevel/Endpoint.h **** 			}
 407:../../LUFA/Drivers/USB/LowLevel/Endpoint.h **** 			
 408:../../LUFA/Drivers/USB/LowLevel/Endpoint.h **** 			/** Determines if the selected OUT endpoint has received new packet.
 409:../../LUFA/Drivers/USB/LowLevel/Endpoint.h **** 			 *
 410:../../LUFA/Drivers/USB/LowLevel/Endpoint.h **** 			 *  \ingroup Group_EndpointPacketManagement
 411:../../LUFA/Drivers/USB/LowLevel/Endpoint.h **** 			 *
 412:../../LUFA/Drivers/USB/LowLevel/Endpoint.h **** 			 *  \return Boolean true if current endpoint is has received an OUT packet, false otherwise.
 413:../../LUFA/Drivers/USB/LowLevel/Endpoint.h **** 			 */
 414:../../LUFA/Drivers/USB/LowLevel/Endpoint.h **** 			static inline bool Endpoint_IsOUTReceived(void) ATTR_WARN_UNUSED_RESULT ATTR_ALWAYS_INLINE;
 415:../../LUFA/Drivers/USB/LowLevel/Endpoint.h **** 			static inline bool Endpoint_IsOUTReceived(void)
 416:../../LUFA/Drivers/USB/LowLevel/Endpoint.h **** 			{
 417:../../LUFA/Drivers/USB/LowLevel/Endpoint.h **** 				return ((UEINTX & (1 << RXOUTI)) ? true : false);
 418:../../LUFA/Drivers/USB/LowLevel/Endpoint.h **** 			}
 419:../../LUFA/Drivers/USB/LowLevel/Endpoint.h **** 			
 420:../../LUFA/Drivers/USB/LowLevel/Endpoint.h **** 			/** Determines if the current CONTROL type endpoint has received a SETUP packet.
 421:../../LUFA/Drivers/USB/LowLevel/Endpoint.h **** 			 *
 422:../../LUFA/Drivers/USB/LowLevel/Endpoint.h **** 			 *  \ingroup Group_EndpointPacketManagement
 423:../../LUFA/Drivers/USB/LowLevel/Endpoint.h **** 			 *
 424:../../LUFA/Drivers/USB/LowLevel/Endpoint.h **** 			 *  \return Boolean true if the selected endpoint has received a SETUP packet, false otherwise.
 425:../../LUFA/Drivers/USB/LowLevel/Endpoint.h **** 			 */
 426:../../LUFA/Drivers/USB/LowLevel/Endpoint.h **** 			static inline bool Endpoint_IsSETUPReceived(void) ATTR_WARN_UNUSED_RESULT ATTR_ALWAYS_INLINE;
 427:../../LUFA/Drivers/USB/LowLevel/Endpoint.h **** 			static inline bool Endpoint_IsSETUPReceived(void)
 428:../../LUFA/Drivers/USB/LowLevel/Endpoint.h **** 			{
 429:../../LUFA/Drivers/USB/LowLevel/Endpoint.h **** 				return ((UEINTX & (1 << RXSTPI)) ? true : false);
 430:../../LUFA/Drivers/USB/LowLevel/Endpoint.h **** 			}
 431:../../LUFA/Drivers/USB/LowLevel/Endpoint.h **** 			
 432:../../LUFA/Drivers/USB/LowLevel/Endpoint.h **** 			/** Clears a received SETUP packet on the currently selected CONTROL type endpoint, freeing up t
 433:../../LUFA/Drivers/USB/LowLevel/Endpoint.h **** 			 *  endpoint for the next packet.
 434:../../LUFA/Drivers/USB/LowLevel/Endpoint.h **** 			 *
 435:../../LUFA/Drivers/USB/LowLevel/Endpoint.h **** 			 *  \ingroup Group_EndpointPacketManagement
 436:../../LUFA/Drivers/USB/LowLevel/Endpoint.h **** 			 *
 437:../../LUFA/Drivers/USB/LowLevel/Endpoint.h **** 			 *  \note This is not applicable for non CONTROL type endpoints. 
 438:../../LUFA/Drivers/USB/LowLevel/Endpoint.h **** 			 */
 439:../../LUFA/Drivers/USB/LowLevel/Endpoint.h **** 			static inline void Endpoint_ClearSETUP(void) ATTR_ALWAYS_INLINE;
 440:../../LUFA/Drivers/USB/LowLevel/Endpoint.h **** 			static inline void Endpoint_ClearSETUP(void)
 441:../../LUFA/Drivers/USB/LowLevel/Endpoint.h **** 			{
 442:../../LUFA/Drivers/USB/LowLevel/Endpoint.h **** 				UEINTX &= ~(1 << RXSTPI);
 443:../../LUFA/Drivers/USB/LowLevel/Endpoint.h **** 			}
 444:../../LUFA/Drivers/USB/LowLevel/Endpoint.h **** 			
 445:../../LUFA/Drivers/USB/LowLevel/Endpoint.h **** 			/** Sends an IN packet to the host on the currently selected endpoint, freeing up the endpoint f
 446:../../LUFA/Drivers/USB/LowLevel/Endpoint.h **** 			 *  next packet and switching to the alternative endpoint bank if double banked.
 447:../../LUFA/Drivers/USB/LowLevel/Endpoint.h **** 			 *
 448:../../LUFA/Drivers/USB/LowLevel/Endpoint.h **** 			 *  \ingroup Group_EndpointPacketManagement
 449:../../LUFA/Drivers/USB/LowLevel/Endpoint.h **** 			 */
 450:../../LUFA/Drivers/USB/LowLevel/Endpoint.h **** 			static inline void Endpoint_ClearIN(void) ATTR_ALWAYS_INLINE;
 451:../../LUFA/Drivers/USB/LowLevel/Endpoint.h **** 			static inline void Endpoint_ClearIN(void)
 452:../../LUFA/Drivers/USB/LowLevel/Endpoint.h **** 			{
 453:../../LUFA/Drivers/USB/LowLevel/Endpoint.h **** 				#if !defined(CONTROL_ONLY_DEVICE)
 454:../../LUFA/Drivers/USB/LowLevel/Endpoint.h **** 					UEINTX &= ~((1 << TXINI) | (1 << FIFOCON));
 455:../../LUFA/Drivers/USB/LowLevel/Endpoint.h **** 				#else
 456:../../LUFA/Drivers/USB/LowLevel/Endpoint.h **** 					UEINTX &= ~(1 << TXINI);
 457:../../LUFA/Drivers/USB/LowLevel/Endpoint.h **** 				#endif
 458:../../LUFA/Drivers/USB/LowLevel/Endpoint.h **** 			}
 459:../../LUFA/Drivers/USB/LowLevel/Endpoint.h **** 			
 460:../../LUFA/Drivers/USB/LowLevel/Endpoint.h **** 			/** Acknowledges an OUT packet to the host on the currently selected endpoint, freeing up the en
 461:../../LUFA/Drivers/USB/LowLevel/Endpoint.h **** 			 *  for the next packet and switching to the alternative endpoint bank if double banked.
 462:../../LUFA/Drivers/USB/LowLevel/Endpoint.h **** 			 *
 463:../../LUFA/Drivers/USB/LowLevel/Endpoint.h **** 			 *  \ingroup Group_EndpointPacketManagement
 464:../../LUFA/Drivers/USB/LowLevel/Endpoint.h **** 			 */
 465:../../LUFA/Drivers/USB/LowLevel/Endpoint.h **** 			static inline void Endpoint_ClearOUT(void) ATTR_ALWAYS_INLINE;
 466:../../LUFA/Drivers/USB/LowLevel/Endpoint.h **** 			static inline void Endpoint_ClearOUT(void)
 467:../../LUFA/Drivers/USB/LowLevel/Endpoint.h **** 			{
 468:../../LUFA/Drivers/USB/LowLevel/Endpoint.h **** 				#if !defined(CONTROL_ONLY_DEVICE)
 469:../../LUFA/Drivers/USB/LowLevel/Endpoint.h **** 					UEINTX &= ~((1 << RXOUTI) | (1 << FIFOCON));
 470:../../LUFA/Drivers/USB/LowLevel/Endpoint.h **** 				#else
 471:../../LUFA/Drivers/USB/LowLevel/Endpoint.h **** 					UEINTX &= ~(1 << RXOUTI);	
 472:../../LUFA/Drivers/USB/LowLevel/Endpoint.h **** 				#endif
 473:../../LUFA/Drivers/USB/LowLevel/Endpoint.h **** 			}
 474:../../LUFA/Drivers/USB/LowLevel/Endpoint.h **** 			
 475:../../LUFA/Drivers/USB/LowLevel/Endpoint.h **** 			/** Stalls the current endpoint, indicating to the host that a logical problem occurred with the
 476:../../LUFA/Drivers/USB/LowLevel/Endpoint.h **** 			 *  indicated endpoint and that the current transfer sequence should be aborted. This provides a
 477:../../LUFA/Drivers/USB/LowLevel/Endpoint.h **** 			 *  way for devices to indicate invalid commands to the host so that the current transfer can be
 478:../../LUFA/Drivers/USB/LowLevel/Endpoint.h **** 			 *  aborted and the host can begin its own recovery sequence.
 479:../../LUFA/Drivers/USB/LowLevel/Endpoint.h **** 			 *
 480:../../LUFA/Drivers/USB/LowLevel/Endpoint.h **** 			 *  The currently selected endpoint remains stalled until either the \ref Endpoint_ClearStall() 
 481:../../LUFA/Drivers/USB/LowLevel/Endpoint.h **** 			 *  is called, or the host issues a CLEAR FEATURE request to the device for the currently select
 482:../../LUFA/Drivers/USB/LowLevel/Endpoint.h **** 			 *  endpoint.
 483:../../LUFA/Drivers/USB/LowLevel/Endpoint.h **** 			 *
 484:../../LUFA/Drivers/USB/LowLevel/Endpoint.h **** 			 *  \ingroup Group_EndpointPacketManagement
 485:../../LUFA/Drivers/USB/LowLevel/Endpoint.h **** 			 */
 486:../../LUFA/Drivers/USB/LowLevel/Endpoint.h **** 			static inline void Endpoint_StallTransaction(void) ATTR_ALWAYS_INLINE;
 487:../../LUFA/Drivers/USB/LowLevel/Endpoint.h **** 			static inline void Endpoint_StallTransaction(void)
 488:../../LUFA/Drivers/USB/LowLevel/Endpoint.h **** 			{
 489:../../LUFA/Drivers/USB/LowLevel/Endpoint.h **** 				UECONX |= (1 << STALLRQ);
 490:../../LUFA/Drivers/USB/LowLevel/Endpoint.h **** 			}
 491:../../LUFA/Drivers/USB/LowLevel/Endpoint.h **** 			
 492:../../LUFA/Drivers/USB/LowLevel/Endpoint.h **** 			/** Clears the STALL condition on the currently selected endpoint.
 493:../../LUFA/Drivers/USB/LowLevel/Endpoint.h **** 			 *
 494:../../LUFA/Drivers/USB/LowLevel/Endpoint.h **** 			 *  \ingroup Group_EndpointPacketManagement
 495:../../LUFA/Drivers/USB/LowLevel/Endpoint.h **** 			 */
 496:../../LUFA/Drivers/USB/LowLevel/Endpoint.h **** 			static inline void Endpoint_ClearStall(void) ATTR_ALWAYS_INLINE;
 497:../../LUFA/Drivers/USB/LowLevel/Endpoint.h **** 			static inline void Endpoint_ClearStall(void)
 498:../../LUFA/Drivers/USB/LowLevel/Endpoint.h **** 			{
 499:../../LUFA/Drivers/USB/LowLevel/Endpoint.h **** 				UECONX |= (1 << STALLRQC);
 500:../../LUFA/Drivers/USB/LowLevel/Endpoint.h **** 			}
 501:../../LUFA/Drivers/USB/LowLevel/Endpoint.h **** 			
 502:../../LUFA/Drivers/USB/LowLevel/Endpoint.h **** 			/** Determines if the currently selected endpoint is stalled, false otherwise.
 503:../../LUFA/Drivers/USB/LowLevel/Endpoint.h **** 			 *
 504:../../LUFA/Drivers/USB/LowLevel/Endpoint.h **** 			 *  \ingroup Group_EndpointPacketManagement
 505:../../LUFA/Drivers/USB/LowLevel/Endpoint.h **** 			 *
 506:../../LUFA/Drivers/USB/LowLevel/Endpoint.h **** 			 *  \return Boolean true if the currently selected endpoint is stalled, false otherwise.
 507:../../LUFA/Drivers/USB/LowLevel/Endpoint.h **** 			 */
 508:../../LUFA/Drivers/USB/LowLevel/Endpoint.h **** 			static inline bool Endpoint_IsStalled(void) ATTR_WARN_UNUSED_RESULT ATTR_ALWAYS_INLINE;
 509:../../LUFA/Drivers/USB/LowLevel/Endpoint.h **** 			static inline bool Endpoint_IsStalled(void)
 510:../../LUFA/Drivers/USB/LowLevel/Endpoint.h **** 			{
 511:../../LUFA/Drivers/USB/LowLevel/Endpoint.h **** 				return ((UECONX & (1 << STALLRQ)) ? true : false);
 512:../../LUFA/Drivers/USB/LowLevel/Endpoint.h **** 			}
 513:../../LUFA/Drivers/USB/LowLevel/Endpoint.h **** 			
 514:../../LUFA/Drivers/USB/LowLevel/Endpoint.h **** 			/** Resets the data toggle of the currently selected endpoint. */
 515:../../LUFA/Drivers/USB/LowLevel/Endpoint.h **** 			static inline void Endpoint_ResetDataToggle(void) ATTR_ALWAYS_INLINE;
 516:../../LUFA/Drivers/USB/LowLevel/Endpoint.h **** 			static inline void Endpoint_ResetDataToggle(void)
 517:../../LUFA/Drivers/USB/LowLevel/Endpoint.h **** 			{
 518:../../LUFA/Drivers/USB/LowLevel/Endpoint.h **** 				UECONX |= (1 << RSTDT);
 519:../../LUFA/Drivers/USB/LowLevel/Endpoint.h **** 			}
 520:../../LUFA/Drivers/USB/LowLevel/Endpoint.h **** 			
 521:../../LUFA/Drivers/USB/LowLevel/Endpoint.h **** 			/** Determines the currently selected endpoint's direction.
 522:../../LUFA/Drivers/USB/LowLevel/Endpoint.h **** 			 *
 523:../../LUFA/Drivers/USB/LowLevel/Endpoint.h **** 			 *  \return The currently selected endpoint's direction, as a ENDPOINT_DIR_* mask.
 524:../../LUFA/Drivers/USB/LowLevel/Endpoint.h **** 			 */
 525:../../LUFA/Drivers/USB/LowLevel/Endpoint.h **** 			static inline uint8_t Endpoint_GetEndpointDirection(void) ATTR_WARN_UNUSED_RESULT ATTR_ALWAYS_IN
 526:../../LUFA/Drivers/USB/LowLevel/Endpoint.h **** 			static inline uint8_t Endpoint_GetEndpointDirection(void)
 527:../../LUFA/Drivers/USB/LowLevel/Endpoint.h **** 			{
 528:../../LUFA/Drivers/USB/LowLevel/Endpoint.h **** 				return (UECFG0X & ENDPOINT_DIR_IN);
 529:../../LUFA/Drivers/USB/LowLevel/Endpoint.h **** 			}
 530:../../LUFA/Drivers/USB/LowLevel/Endpoint.h **** 
 531:../../LUFA/Drivers/USB/LowLevel/Endpoint.h **** 			/** Sets the direction of the currently selected endpoint.
 532:../../LUFA/Drivers/USB/LowLevel/Endpoint.h **** 			 *
 533:../../LUFA/Drivers/USB/LowLevel/Endpoint.h **** 			 *  \param[in] DirectionMask  New endpoint direction, as a ENDPOINT_DIR_* mask.
 534:../../LUFA/Drivers/USB/LowLevel/Endpoint.h **** 			 */
 535:../../LUFA/Drivers/USB/LowLevel/Endpoint.h **** 			static inline void Endpoint_SetEndpointDirection(const uint8_t DirectionMask) ATTR_ALWAYS_INLINE
 536:../../LUFA/Drivers/USB/LowLevel/Endpoint.h **** 			static inline void Endpoint_SetEndpointDirection(const uint8_t DirectionMask)
 537:../../LUFA/Drivers/USB/LowLevel/Endpoint.h **** 			{
 538:../../LUFA/Drivers/USB/LowLevel/Endpoint.h **** 				UECFG0X = ((UECFG0X & ~ENDPOINT_DIR_IN) | DirectionMask);
 539:../../LUFA/Drivers/USB/LowLevel/Endpoint.h **** 			}
 540:../../LUFA/Drivers/USB/LowLevel/Endpoint.h **** 
 541:../../LUFA/Drivers/USB/LowLevel/Endpoint.h **** 			/** Reads one byte from the currently selected endpoint's bank, for OUT direction endpoints.
 542:../../LUFA/Drivers/USB/LowLevel/Endpoint.h **** 			 *
 543:../../LUFA/Drivers/USB/LowLevel/Endpoint.h **** 			 *  \ingroup Group_EndpointPrimitiveRW
 544:../../LUFA/Drivers/USB/LowLevel/Endpoint.h **** 			 *
 545:../../LUFA/Drivers/USB/LowLevel/Endpoint.h **** 			 *  \return Next byte in the currently selected endpoint's FIFO buffer.
 546:../../LUFA/Drivers/USB/LowLevel/Endpoint.h **** 			 */
 547:../../LUFA/Drivers/USB/LowLevel/Endpoint.h **** 			static inline uint8_t Endpoint_Read_Byte(void) ATTR_WARN_UNUSED_RESULT ATTR_ALWAYS_INLINE;
 548:../../LUFA/Drivers/USB/LowLevel/Endpoint.h **** 			static inline uint8_t Endpoint_Read_Byte(void)
 549:../../LUFA/Drivers/USB/LowLevel/Endpoint.h **** 			{
 550:../../LUFA/Drivers/USB/LowLevel/Endpoint.h **** 				return UEDATX;
 551:../../LUFA/Drivers/USB/LowLevel/Endpoint.h **** 			}
 552:../../LUFA/Drivers/USB/LowLevel/Endpoint.h **** 
 553:../../LUFA/Drivers/USB/LowLevel/Endpoint.h **** 			/** Writes one byte from the currently selected endpoint's bank, for IN direction endpoints.
 554:../../LUFA/Drivers/USB/LowLevel/Endpoint.h **** 			 *
 555:../../LUFA/Drivers/USB/LowLevel/Endpoint.h **** 			 *  \ingroup Group_EndpointPrimitiveRW
 556:../../LUFA/Drivers/USB/LowLevel/Endpoint.h **** 			 *
 557:../../LUFA/Drivers/USB/LowLevel/Endpoint.h **** 			 *  \param[in] Byte  Next byte to write into the the currently selected endpoint's FIFO buffer.
 558:../../LUFA/Drivers/USB/LowLevel/Endpoint.h **** 			 */
 559:../../LUFA/Drivers/USB/LowLevel/Endpoint.h **** 			static inline void Endpoint_Write_Byte(const uint8_t Byte) ATTR_ALWAYS_INLINE;
 560:../../LUFA/Drivers/USB/LowLevel/Endpoint.h **** 			static inline void Endpoint_Write_Byte(const uint8_t Byte)
 561:../../LUFA/Drivers/USB/LowLevel/Endpoint.h **** 			{
 562:../../LUFA/Drivers/USB/LowLevel/Endpoint.h **** 				UEDATX = Byte;
 563:../../LUFA/Drivers/USB/LowLevel/Endpoint.h **** 			}
 564:../../LUFA/Drivers/USB/LowLevel/Endpoint.h **** 
 565:../../LUFA/Drivers/USB/LowLevel/Endpoint.h **** 			/** Discards one byte from the currently selected endpoint's bank, for OUT direction endpoints.
 566:../../LUFA/Drivers/USB/LowLevel/Endpoint.h **** 			 *
 567:../../LUFA/Drivers/USB/LowLevel/Endpoint.h **** 			 *  \ingroup Group_EndpointPrimitiveRW
 568:../../LUFA/Drivers/USB/LowLevel/Endpoint.h **** 			 */
 569:../../LUFA/Drivers/USB/LowLevel/Endpoint.h **** 			static inline void Endpoint_Discard_Byte(void) ATTR_ALWAYS_INLINE;
 570:../../LUFA/Drivers/USB/LowLevel/Endpoint.h **** 			static inline void Endpoint_Discard_Byte(void)
 571:../../LUFA/Drivers/USB/LowLevel/Endpoint.h **** 			{
 572:../../LUFA/Drivers/USB/LowLevel/Endpoint.h **** 				uint8_t Dummy;
 573:../../LUFA/Drivers/USB/LowLevel/Endpoint.h **** 				
 574:../../LUFA/Drivers/USB/LowLevel/Endpoint.h **** 				Dummy = UEDATX;
 575:../../LUFA/Drivers/USB/LowLevel/Endpoint.h **** 			}
 576:../../LUFA/Drivers/USB/LowLevel/Endpoint.h **** 			
 577:../../LUFA/Drivers/USB/LowLevel/Endpoint.h **** 			/** Reads two bytes from the currently selected endpoint's bank in little endian format, for OUT
 578:../../LUFA/Drivers/USB/LowLevel/Endpoint.h **** 			 *  direction endpoints.
 579:../../LUFA/Drivers/USB/LowLevel/Endpoint.h **** 			 *
 580:../../LUFA/Drivers/USB/LowLevel/Endpoint.h **** 			 *  \ingroup Group_EndpointPrimitiveRW
 581:../../LUFA/Drivers/USB/LowLevel/Endpoint.h **** 			 *
 582:../../LUFA/Drivers/USB/LowLevel/Endpoint.h **** 			 *  \return Next word in the currently selected endpoint's FIFO buffer.
 583:../../LUFA/Drivers/USB/LowLevel/Endpoint.h **** 			 */
 584:../../LUFA/Drivers/USB/LowLevel/Endpoint.h **** 			static inline uint16_t Endpoint_Read_Word_LE(void) ATTR_WARN_UNUSED_RESULT ATTR_ALWAYS_INLINE;
 585:../../LUFA/Drivers/USB/LowLevel/Endpoint.h **** 			static inline uint16_t Endpoint_Read_Word_LE(void)
 586:../../LUFA/Drivers/USB/LowLevel/Endpoint.h **** 			{
 587:../../LUFA/Drivers/USB/LowLevel/Endpoint.h **** 				union
 588:../../LUFA/Drivers/USB/LowLevel/Endpoint.h **** 				{
 589:../../LUFA/Drivers/USB/LowLevel/Endpoint.h **** 					uint16_t Word;
 590:../../LUFA/Drivers/USB/LowLevel/Endpoint.h **** 					uint8_t  Bytes[2];
 591:../../LUFA/Drivers/USB/LowLevel/Endpoint.h **** 				} Data;
 592:../../LUFA/Drivers/USB/LowLevel/Endpoint.h **** 				
 593:../../LUFA/Drivers/USB/LowLevel/Endpoint.h **** 				Data.Bytes[0] = UEDATX;
 594:../../LUFA/Drivers/USB/LowLevel/Endpoint.h **** 				Data.Bytes[1] = UEDATX;
 595:../../LUFA/Drivers/USB/LowLevel/Endpoint.h **** 			
 596:../../LUFA/Drivers/USB/LowLevel/Endpoint.h **** 				return Data.Word;
 597:../../LUFA/Drivers/USB/LowLevel/Endpoint.h **** 			}
 598:../../LUFA/Drivers/USB/LowLevel/Endpoint.h **** 
 599:../../LUFA/Drivers/USB/LowLevel/Endpoint.h **** 			/** Reads two bytes from the currently selected endpoint's bank in big endian format, for OUT
 600:../../LUFA/Drivers/USB/LowLevel/Endpoint.h **** 			 *  direction endpoints.
 601:../../LUFA/Drivers/USB/LowLevel/Endpoint.h **** 			 *
 602:../../LUFA/Drivers/USB/LowLevel/Endpoint.h **** 			 *  \ingroup Group_EndpointPrimitiveRW
 603:../../LUFA/Drivers/USB/LowLevel/Endpoint.h **** 			 *
 604:../../LUFA/Drivers/USB/LowLevel/Endpoint.h **** 			 *  \return Next word in the currently selected endpoint's FIFO buffer.
 605:../../LUFA/Drivers/USB/LowLevel/Endpoint.h **** 			 */
 606:../../LUFA/Drivers/USB/LowLevel/Endpoint.h **** 			static inline uint16_t Endpoint_Read_Word_BE(void) ATTR_WARN_UNUSED_RESULT ATTR_ALWAYS_INLINE;
 607:../../LUFA/Drivers/USB/LowLevel/Endpoint.h **** 			static inline uint16_t Endpoint_Read_Word_BE(void)
 608:../../LUFA/Drivers/USB/LowLevel/Endpoint.h **** 			{
 609:../../LUFA/Drivers/USB/LowLevel/Endpoint.h **** 				union
 610:../../LUFA/Drivers/USB/LowLevel/Endpoint.h **** 				{
 611:../../LUFA/Drivers/USB/LowLevel/Endpoint.h **** 					uint16_t Word;
 612:../../LUFA/Drivers/USB/LowLevel/Endpoint.h **** 					uint8_t  Bytes[2];
 613:../../LUFA/Drivers/USB/LowLevel/Endpoint.h **** 				} Data;
 614:../../LUFA/Drivers/USB/LowLevel/Endpoint.h **** 				
 615:../../LUFA/Drivers/USB/LowLevel/Endpoint.h **** 				Data.Bytes[1] = UEDATX;
 616:../../LUFA/Drivers/USB/LowLevel/Endpoint.h **** 				Data.Bytes[0] = UEDATX;
 617:../../LUFA/Drivers/USB/LowLevel/Endpoint.h **** 			
 618:../../LUFA/Drivers/USB/LowLevel/Endpoint.h **** 				return Data.Word;
 619:../../LUFA/Drivers/USB/LowLevel/Endpoint.h **** 			}
 620:../../LUFA/Drivers/USB/LowLevel/Endpoint.h **** 
 621:../../LUFA/Drivers/USB/LowLevel/Endpoint.h **** 			/** Writes two bytes to the currently selected endpoint's bank in little endian format, for IN
 622:../../LUFA/Drivers/USB/LowLevel/Endpoint.h **** 			 *  direction endpoints.
 623:../../LUFA/Drivers/USB/LowLevel/Endpoint.h **** 			 *
 624:../../LUFA/Drivers/USB/LowLevel/Endpoint.h **** 			 *  \ingroup Group_EndpointPrimitiveRW
 625:../../LUFA/Drivers/USB/LowLevel/Endpoint.h **** 			 *
 626:../../LUFA/Drivers/USB/LowLevel/Endpoint.h **** 			 *  \param[in] Word  Next word to write to the currently selected endpoint's FIFO buffer.
 627:../../LUFA/Drivers/USB/LowLevel/Endpoint.h **** 			 */
 628:../../LUFA/Drivers/USB/LowLevel/Endpoint.h **** 			static inline void Endpoint_Write_Word_LE(const uint16_t Word) ATTR_ALWAYS_INLINE;
 629:../../LUFA/Drivers/USB/LowLevel/Endpoint.h **** 			static inline void Endpoint_Write_Word_LE(const uint16_t Word)
 630:../../LUFA/Drivers/USB/LowLevel/Endpoint.h **** 			{
 631:../../LUFA/Drivers/USB/LowLevel/Endpoint.h **** 				UEDATX = (Word & 0xFF);
 632:../../LUFA/Drivers/USB/LowLevel/Endpoint.h **** 				UEDATX = (Word >> 8);
 633:../../LUFA/Drivers/USB/LowLevel/Endpoint.h **** 			}
 634:../../LUFA/Drivers/USB/LowLevel/Endpoint.h **** 			
 635:../../LUFA/Drivers/USB/LowLevel/Endpoint.h **** 			/** Writes two bytes to the currently selected endpoint's bank in big endian format, for IN
 636:../../LUFA/Drivers/USB/LowLevel/Endpoint.h **** 			 *  direction endpoints.
 637:../../LUFA/Drivers/USB/LowLevel/Endpoint.h **** 			 *
 638:../../LUFA/Drivers/USB/LowLevel/Endpoint.h **** 			 *  \ingroup Group_EndpointPrimitiveRW
 639:../../LUFA/Drivers/USB/LowLevel/Endpoint.h **** 			 *
 640:../../LUFA/Drivers/USB/LowLevel/Endpoint.h **** 			 *  \param[in] Word  Next word to write to the currently selected endpoint's FIFO buffer.
 641:../../LUFA/Drivers/USB/LowLevel/Endpoint.h **** 			 */
 642:../../LUFA/Drivers/USB/LowLevel/Endpoint.h **** 			static inline void Endpoint_Write_Word_BE(const uint16_t Word) ATTR_ALWAYS_INLINE;
 643:../../LUFA/Drivers/USB/LowLevel/Endpoint.h **** 			static inline void Endpoint_Write_Word_BE(const uint16_t Word)
 644:../../LUFA/Drivers/USB/LowLevel/Endpoint.h **** 			{
 645:../../LUFA/Drivers/USB/LowLevel/Endpoint.h **** 				UEDATX = (Word >> 8);
 646:../../LUFA/Drivers/USB/LowLevel/Endpoint.h **** 				UEDATX = (Word & 0xFF);
 647:../../LUFA/Drivers/USB/LowLevel/Endpoint.h **** 			}
 648:../../LUFA/Drivers/USB/LowLevel/Endpoint.h **** 
 649:../../LUFA/Drivers/USB/LowLevel/Endpoint.h **** 			/** Discards two bytes from the currently selected endpoint's bank, for OUT direction endpoints.
 650:../../LUFA/Drivers/USB/LowLevel/Endpoint.h **** 			 *
 651:../../LUFA/Drivers/USB/LowLevel/Endpoint.h **** 			 *  \ingroup Group_EndpointPrimitiveRW
 652:../../LUFA/Drivers/USB/LowLevel/Endpoint.h **** 			 */
 653:../../LUFA/Drivers/USB/LowLevel/Endpoint.h **** 			static inline void Endpoint_Discard_Word(void) ATTR_ALWAYS_INLINE;
 654:../../LUFA/Drivers/USB/LowLevel/Endpoint.h **** 			static inline void Endpoint_Discard_Word(void)
 655:../../LUFA/Drivers/USB/LowLevel/Endpoint.h **** 			{
 656:../../LUFA/Drivers/USB/LowLevel/Endpoint.h **** 				uint8_t Dummy;
 657:../../LUFA/Drivers/USB/LowLevel/Endpoint.h **** 				
 658:../../LUFA/Drivers/USB/LowLevel/Endpoint.h **** 				Dummy = UEDATX;
 659:../../LUFA/Drivers/USB/LowLevel/Endpoint.h **** 				Dummy = UEDATX;
 660:../../LUFA/Drivers/USB/LowLevel/Endpoint.h **** 			}
 661:../../LUFA/Drivers/USB/LowLevel/Endpoint.h **** 
 662:../../LUFA/Drivers/USB/LowLevel/Endpoint.h **** 			/** Reads four bytes from the currently selected endpoint's bank in little endian format, for OU
 663:../../LUFA/Drivers/USB/LowLevel/Endpoint.h **** 			 *  direction endpoints.
 664:../../LUFA/Drivers/USB/LowLevel/Endpoint.h **** 			 *
 665:../../LUFA/Drivers/USB/LowLevel/Endpoint.h **** 			 *  \ingroup Group_EndpointPrimitiveRW
 666:../../LUFA/Drivers/USB/LowLevel/Endpoint.h **** 			 *
 667:../../LUFA/Drivers/USB/LowLevel/Endpoint.h **** 			 *  \return Next double word in the currently selected endpoint's FIFO buffer.
 668:../../LUFA/Drivers/USB/LowLevel/Endpoint.h **** 			 */
 669:../../LUFA/Drivers/USB/LowLevel/Endpoint.h **** 			static inline uint32_t Endpoint_Read_DWord_LE(void) ATTR_WARN_UNUSED_RESULT ATTR_ALWAYS_INLINE;
 670:../../LUFA/Drivers/USB/LowLevel/Endpoint.h **** 			static inline uint32_t Endpoint_Read_DWord_LE(void)
 671:../../LUFA/Drivers/USB/LowLevel/Endpoint.h **** 			{
 672:../../LUFA/Drivers/USB/LowLevel/Endpoint.h **** 				union
 673:../../LUFA/Drivers/USB/LowLevel/Endpoint.h **** 				{
 674:../../LUFA/Drivers/USB/LowLevel/Endpoint.h **** 					uint32_t DWord;
 675:../../LUFA/Drivers/USB/LowLevel/Endpoint.h **** 					uint8_t  Bytes[4];
 676:../../LUFA/Drivers/USB/LowLevel/Endpoint.h **** 				} Data;
 677:../../LUFA/Drivers/USB/LowLevel/Endpoint.h **** 				
 678:../../LUFA/Drivers/USB/LowLevel/Endpoint.h **** 				Data.Bytes[0] = UEDATX;
 679:../../LUFA/Drivers/USB/LowLevel/Endpoint.h **** 				Data.Bytes[1] = UEDATX;
 680:../../LUFA/Drivers/USB/LowLevel/Endpoint.h **** 				Data.Bytes[2] = UEDATX;
 681:../../LUFA/Drivers/USB/LowLevel/Endpoint.h **** 				Data.Bytes[3] = UEDATX;
 682:../../LUFA/Drivers/USB/LowLevel/Endpoint.h **** 			
 683:../../LUFA/Drivers/USB/LowLevel/Endpoint.h **** 				return Data.DWord;
 684:../../LUFA/Drivers/USB/LowLevel/Endpoint.h **** 			}
 685:../../LUFA/Drivers/USB/LowLevel/Endpoint.h **** 
 686:../../LUFA/Drivers/USB/LowLevel/Endpoint.h **** 			/** Reads four bytes from the currently selected endpoint's bank in big endian format, for OUT
 687:../../LUFA/Drivers/USB/LowLevel/Endpoint.h **** 			 *  direction endpoints.
 688:../../LUFA/Drivers/USB/LowLevel/Endpoint.h **** 			 *
 689:../../LUFA/Drivers/USB/LowLevel/Endpoint.h **** 			 *  \ingroup Group_EndpointPrimitiveRW
 690:../../LUFA/Drivers/USB/LowLevel/Endpoint.h **** 			 *
 691:../../LUFA/Drivers/USB/LowLevel/Endpoint.h **** 			 *  \return Next double word in the currently selected endpoint's FIFO buffer.
 692:../../LUFA/Drivers/USB/LowLevel/Endpoint.h **** 			 */
 693:../../LUFA/Drivers/USB/LowLevel/Endpoint.h **** 			static inline uint32_t Endpoint_Read_DWord_BE(void) ATTR_WARN_UNUSED_RESULT ATTR_ALWAYS_INLINE;
 694:../../LUFA/Drivers/USB/LowLevel/Endpoint.h **** 			static inline uint32_t Endpoint_Read_DWord_BE(void)
 695:../../LUFA/Drivers/USB/LowLevel/Endpoint.h **** 			{
 696:../../LUFA/Drivers/USB/LowLevel/Endpoint.h **** 				union
 697:../../LUFA/Drivers/USB/LowLevel/Endpoint.h **** 				{
 698:../../LUFA/Drivers/USB/LowLevel/Endpoint.h **** 					uint32_t DWord;
 699:../../LUFA/Drivers/USB/LowLevel/Endpoint.h **** 					uint8_t  Bytes[4];
 700:../../LUFA/Drivers/USB/LowLevel/Endpoint.h **** 				} Data;
 701:../../LUFA/Drivers/USB/LowLevel/Endpoint.h **** 				
 702:../../LUFA/Drivers/USB/LowLevel/Endpoint.h **** 				Data.Bytes[3] = UEDATX;
 703:../../LUFA/Drivers/USB/LowLevel/Endpoint.h **** 				Data.Bytes[2] = UEDATX;
 704:../../LUFA/Drivers/USB/LowLevel/Endpoint.h **** 				Data.Bytes[1] = UEDATX;
 705:../../LUFA/Drivers/USB/LowLevel/Endpoint.h **** 				Data.Bytes[0] = UEDATX;
 706:../../LUFA/Drivers/USB/LowLevel/Endpoint.h **** 			
 707:../../LUFA/Drivers/USB/LowLevel/Endpoint.h **** 				return Data.DWord;
 708:../../LUFA/Drivers/USB/LowLevel/Endpoint.h **** 			}
 709:../../LUFA/Drivers/USB/LowLevel/Endpoint.h **** 
 710:../../LUFA/Drivers/USB/LowLevel/Endpoint.h **** 			/** Writes four bytes to the currently selected endpoint's bank in little endian format, for IN
 711:../../LUFA/Drivers/USB/LowLevel/Endpoint.h **** 			 *  direction endpoints.
 712:../../LUFA/Drivers/USB/LowLevel/Endpoint.h **** 			 *
 713:../../LUFA/Drivers/USB/LowLevel/Endpoint.h **** 			 *  \ingroup Group_EndpointPrimitiveRW
 714:../../LUFA/Drivers/USB/LowLevel/Endpoint.h **** 			 *
 715:../../LUFA/Drivers/USB/LowLevel/Endpoint.h **** 			 *  \param[in] DWord  Next double word to write to the currently selected endpoint's FIFO buffer
 716:../../LUFA/Drivers/USB/LowLevel/Endpoint.h **** 			 */
 717:../../LUFA/Drivers/USB/LowLevel/Endpoint.h **** 			static inline void Endpoint_Write_DWord_LE(const uint32_t DWord) ATTR_ALWAYS_INLINE;
 718:../../LUFA/Drivers/USB/LowLevel/Endpoint.h **** 			static inline void Endpoint_Write_DWord_LE(const uint32_t DWord)
 719:../../LUFA/Drivers/USB/LowLevel/Endpoint.h **** 			{
 720:../../LUFA/Drivers/USB/LowLevel/Endpoint.h **** 				UEDATX = (DWord &  0xFF);
 721:../../LUFA/Drivers/USB/LowLevel/Endpoint.h **** 				UEDATX = (DWord >> 8);
 722:../../LUFA/Drivers/USB/LowLevel/Endpoint.h **** 				UEDATX = (DWord >> 16);
 723:../../LUFA/Drivers/USB/LowLevel/Endpoint.h **** 				UEDATX = (DWord >> 24);
 724:../../LUFA/Drivers/USB/LowLevel/Endpoint.h **** 			}
 725:../../LUFA/Drivers/USB/LowLevel/Endpoint.h **** 			
 726:../../LUFA/Drivers/USB/LowLevel/Endpoint.h **** 			/** Writes four bytes to the currently selected endpoint's bank in big endian format, for IN
 727:../../LUFA/Drivers/USB/LowLevel/Endpoint.h **** 			 *  direction endpoints.
 728:../../LUFA/Drivers/USB/LowLevel/Endpoint.h **** 			 *
 729:../../LUFA/Drivers/USB/LowLevel/Endpoint.h **** 			 *  \ingroup Group_EndpointPrimitiveRW
 730:../../LUFA/Drivers/USB/LowLevel/Endpoint.h **** 			 *
 731:../../LUFA/Drivers/USB/LowLevel/Endpoint.h **** 			 *  \param[in] DWord  Next double word to write to the currently selected endpoint's FIFO buffer
 732:../../LUFA/Drivers/USB/LowLevel/Endpoint.h **** 			 */
 733:../../LUFA/Drivers/USB/LowLevel/Endpoint.h **** 			static inline void Endpoint_Write_DWord_BE(const uint32_t DWord) ATTR_ALWAYS_INLINE;
 734:../../LUFA/Drivers/USB/LowLevel/Endpoint.h **** 			static inline void Endpoint_Write_DWord_BE(const uint32_t DWord)
 735:../../LUFA/Drivers/USB/LowLevel/Endpoint.h **** 			{
 736:../../LUFA/Drivers/USB/LowLevel/Endpoint.h **** 				UEDATX = (DWord >> 24);
 737:../../LUFA/Drivers/USB/LowLevel/Endpoint.h **** 				UEDATX = (DWord >> 16);
 738:../../LUFA/Drivers/USB/LowLevel/Endpoint.h **** 				UEDATX = (DWord >> 8);
 739:../../LUFA/Drivers/USB/LowLevel/Endpoint.h **** 				UEDATX = (DWord &  0xFF);
 740:../../LUFA/Drivers/USB/LowLevel/Endpoint.h **** 			}
 741:../../LUFA/Drivers/USB/LowLevel/Endpoint.h **** 
 742:../../LUFA/Drivers/USB/LowLevel/Endpoint.h **** 			/** Discards four bytes from the currently selected endpoint's bank, for OUT direction endpoints
 743:../../LUFA/Drivers/USB/LowLevel/Endpoint.h **** 			 *
 744:../../LUFA/Drivers/USB/LowLevel/Endpoint.h **** 			 *  \ingroup Group_EndpointPrimitiveRW
 745:../../LUFA/Drivers/USB/LowLevel/Endpoint.h **** 			 */
 746:../../LUFA/Drivers/USB/LowLevel/Endpoint.h **** 			static inline void Endpoint_Discard_DWord(void) ATTR_ALWAYS_INLINE;
 747:../../LUFA/Drivers/USB/LowLevel/Endpoint.h **** 			static inline void Endpoint_Discard_DWord(void)
 748:../../LUFA/Drivers/USB/LowLevel/Endpoint.h **** 			{
 749:../../LUFA/Drivers/USB/LowLevel/Endpoint.h **** 				uint8_t Dummy;
 750:../../LUFA/Drivers/USB/LowLevel/Endpoint.h **** 				
 751:../../LUFA/Drivers/USB/LowLevel/Endpoint.h **** 				Dummy = UEDATX;
 752:../../LUFA/Drivers/USB/LowLevel/Endpoint.h **** 				Dummy = UEDATX;
 753:../../LUFA/Drivers/USB/LowLevel/Endpoint.h **** 				Dummy = UEDATX;
 754:../../LUFA/Drivers/USB/LowLevel/Endpoint.h **** 				Dummy = UEDATX;
 755:../../LUFA/Drivers/USB/LowLevel/Endpoint.h **** 			}
 756:../../LUFA/Drivers/USB/LowLevel/Endpoint.h **** 
 757:../../LUFA/Drivers/USB/LowLevel/Endpoint.h **** 		/* External Variables: */
 758:../../LUFA/Drivers/USB/LowLevel/Endpoint.h **** 			/** Global indicating the maximum packet size of the default control endpoint located at address
 759:../../LUFA/Drivers/USB/LowLevel/Endpoint.h **** 			 *  0 in the device. This value is set to the value indicated in the device descriptor in the us
 760:../../LUFA/Drivers/USB/LowLevel/Endpoint.h **** 			 *  project once the USB interface is initialized into device mode.
 761:../../LUFA/Drivers/USB/LowLevel/Endpoint.h **** 			 *
 762:../../LUFA/Drivers/USB/LowLevel/Endpoint.h **** 			 *  If space is an issue, it is possible to fix this to a static value by defining the control
 763:../../LUFA/Drivers/USB/LowLevel/Endpoint.h **** 			 *  endpoint size in the FIXED_CONTROL_ENDPOINT_SIZE token passed to the compiler in the makefil
 764:../../LUFA/Drivers/USB/LowLevel/Endpoint.h **** 			 *  via the -D switch. When a fixed control endpoint size is used, the size is no longer dynamic
 765:../../LUFA/Drivers/USB/LowLevel/Endpoint.h **** 			 *  read from the descriptors at runtime and instead fixed to the given value. When used, it is
 766:../../LUFA/Drivers/USB/LowLevel/Endpoint.h **** 			 *  important that the descriptor control endpoint size value matches the size given as the
 767:../../LUFA/Drivers/USB/LowLevel/Endpoint.h **** 			 *  FIXED_CONTROL_ENDPOINT_SIZE token - it is recommended that the FIXED_CONTROL_ENDPOINT_SIZE t
 768:../../LUFA/Drivers/USB/LowLevel/Endpoint.h **** 			 *  be used in the descriptors to ensure this.
 769:../../LUFA/Drivers/USB/LowLevel/Endpoint.h **** 			 *
 770:../../LUFA/Drivers/USB/LowLevel/Endpoint.h **** 			 *  \note This variable should be treated as read-only in the user application, and never manual
 771:../../LUFA/Drivers/USB/LowLevel/Endpoint.h **** 			 *        changed in value.
 772:../../LUFA/Drivers/USB/LowLevel/Endpoint.h **** 			 */
 773:../../LUFA/Drivers/USB/LowLevel/Endpoint.h **** 			#if (!defined(FIXED_CONTROL_ENDPOINT_SIZE) || defined(__DOXYGEN__))
 774:../../LUFA/Drivers/USB/LowLevel/Endpoint.h **** 				extern uint8_t USB_ControlEndpointSize;
 775:../../LUFA/Drivers/USB/LowLevel/Endpoint.h **** 			#else
 776:../../LUFA/Drivers/USB/LowLevel/Endpoint.h **** 				#define USB_ControlEndpointSize FIXED_CONTROL_ENDPOINT_SIZE
 777:../../LUFA/Drivers/USB/LowLevel/Endpoint.h **** 			#endif
 778:../../LUFA/Drivers/USB/LowLevel/Endpoint.h **** 
 779:../../LUFA/Drivers/USB/LowLevel/Endpoint.h **** 		/* Function Prototypes: */
 780:../../LUFA/Drivers/USB/LowLevel/Endpoint.h **** 			#if !defined(NO_STREAM_CALLBACKS) || defined(__DOXYGEN__)
 781:../../LUFA/Drivers/USB/LowLevel/Endpoint.h **** 				#define __CALLBACK_PARAM     , StreamCallbackPtr_t Callback
 782:../../LUFA/Drivers/USB/LowLevel/Endpoint.h **** 			#else
 783:../../LUFA/Drivers/USB/LowLevel/Endpoint.h **** 				#define __CALLBACK_PARAM
 784:../../LUFA/Drivers/USB/LowLevel/Endpoint.h **** 			#endif
 785:../../LUFA/Drivers/USB/LowLevel/Endpoint.h **** 		
 786:../../LUFA/Drivers/USB/LowLevel/Endpoint.h **** 			/** Configures the specified endpoint number with the given endpoint type, direction, bank size
 787:../../LUFA/Drivers/USB/LowLevel/Endpoint.h **** 			 *  and banking mode. Endpoints should be allocated in ascending order by their address in the
 788:../../LUFA/Drivers/USB/LowLevel/Endpoint.h **** 			 *  device (i.e. endpoint 1 should be configured before endpoint 2 and so on) to prevent fragmen
 789:../../LUFA/Drivers/USB/LowLevel/Endpoint.h **** 			 *  of the USB FIFO memory.
 790:../../LUFA/Drivers/USB/LowLevel/Endpoint.h **** 			 *
 791:../../LUFA/Drivers/USB/LowLevel/Endpoint.h **** 			 *  The endpoint type may be one of the EP_TYPE_* macros listed in LowLevel.h and the direction
 792:../../LUFA/Drivers/USB/LowLevel/Endpoint.h **** 			 *  may be either \ref ENDPOINT_DIR_OUT or \ref ENDPOINT_DIR_IN.
 793:../../LUFA/Drivers/USB/LowLevel/Endpoint.h **** 			 *
 794:../../LUFA/Drivers/USB/LowLevel/Endpoint.h **** 			 *  The bank size must indicate the maximum packet size that the endpoint can handle. Different
 795:../../LUFA/Drivers/USB/LowLevel/Endpoint.h **** 			 *  endpoint numbers can handle different maximum packet sizes - refer to the chosen USB AVR's
 796:../../LUFA/Drivers/USB/LowLevel/Endpoint.h **** 			 *  datasheet to determine the maximum bank size for each endpoint.
 797:../../LUFA/Drivers/USB/LowLevel/Endpoint.h **** 			 *
 798:../../LUFA/Drivers/USB/LowLevel/Endpoint.h **** 			 *  The banking mode may be either \ref ENDPOINT_BANK_SINGLE or \ref ENDPOINT_BANK_DOUBLE.
 799:../../LUFA/Drivers/USB/LowLevel/Endpoint.h **** 			 *
 800:../../LUFA/Drivers/USB/LowLevel/Endpoint.h **** 			 *  \note The default control endpoint should not be manually configured by the user application
 801:../../LUFA/Drivers/USB/LowLevel/Endpoint.h **** 			 *        it is automatically configured by the library internally.
 802:../../LUFA/Drivers/USB/LowLevel/Endpoint.h **** 			 *        \n\n
 803:../../LUFA/Drivers/USB/LowLevel/Endpoint.h **** 			 *
 804:../../LUFA/Drivers/USB/LowLevel/Endpoint.h **** 			 *  \note This routine will select the specified endpoint, and the endpoint will remain selected
 805:../../LUFA/Drivers/USB/LowLevel/Endpoint.h **** 			 *        once the routine completes regardless of if the endpoint configuration succeeds.
 806:../../LUFA/Drivers/USB/LowLevel/Endpoint.h **** 			 *
 807:../../LUFA/Drivers/USB/LowLevel/Endpoint.h **** 			 *  \return Boolean true if the configuration succeeded, false otherwise.
 808:../../LUFA/Drivers/USB/LowLevel/Endpoint.h **** 			 */
 809:../../LUFA/Drivers/USB/LowLevel/Endpoint.h **** 			bool Endpoint_ConfigureEndpoint(const uint8_t  Number,
 810:../../LUFA/Drivers/USB/LowLevel/Endpoint.h **** 			                                const uint8_t Type,
 811:../../LUFA/Drivers/USB/LowLevel/Endpoint.h **** 			                                const uint8_t Direction,
 812:../../LUFA/Drivers/USB/LowLevel/Endpoint.h **** 			                                const uint16_t Size,
 813:../../LUFA/Drivers/USB/LowLevel/Endpoint.h **** 			                                const uint8_t Banks);
 814:../../LUFA/Drivers/USB/LowLevel/Endpoint.h **** 
 815:../../LUFA/Drivers/USB/LowLevel/Endpoint.h **** 			/** Spin-loops until the currently selected non-control endpoint is ready for the next packet of
 816:../../LUFA/Drivers/USB/LowLevel/Endpoint.h **** 			 *  to be read or written to it.
 817:../../LUFA/Drivers/USB/LowLevel/Endpoint.h **** 			 *
 818:../../LUFA/Drivers/USB/LowLevel/Endpoint.h **** 			 *  \note This routine should not be called on CONTROL type endpoints.
 819:../../LUFA/Drivers/USB/LowLevel/Endpoint.h **** 			 *
 820:../../LUFA/Drivers/USB/LowLevel/Endpoint.h **** 			 *  \ingroup Group_EndpointRW
 821:../../LUFA/Drivers/USB/LowLevel/Endpoint.h **** 			 *
 822:../../LUFA/Drivers/USB/LowLevel/Endpoint.h **** 			 *  \return A value from the \ref Endpoint_WaitUntilReady_ErrorCodes_t enum.
 823:../../LUFA/Drivers/USB/LowLevel/Endpoint.h **** 			 */
 824:../../LUFA/Drivers/USB/LowLevel/Endpoint.h **** 			uint8_t Endpoint_WaitUntilReady(void);
 825:../../LUFA/Drivers/USB/LowLevel/Endpoint.h **** 			
 826:../../LUFA/Drivers/USB/LowLevel/Endpoint.h **** 			/** Completes the status stage of a control transfer on a CONTROL type endpoint automatically,
 827:../../LUFA/Drivers/USB/LowLevel/Endpoint.h **** 			 *  with respect to the data direction. This is a convenience function which can be used to
 828:../../LUFA/Drivers/USB/LowLevel/Endpoint.h **** 			 *  simplify user control request handling.
 829:../../LUFA/Drivers/USB/LowLevel/Endpoint.h **** 			 */
 830:../../LUFA/Drivers/USB/LowLevel/Endpoint.h **** 			void Endpoint_ClearStatusStage(void);
 831:../../LUFA/Drivers/USB/LowLevel/Endpoint.h **** 
 832:../../LUFA/Drivers/USB/LowLevel/Endpoint.h **** 			/** Reads and discards the given number of bytes from the endpoint from the given buffer,
 833:../../LUFA/Drivers/USB/LowLevel/Endpoint.h **** 			 *  discarding fully read packets from the host as needed. The last packet is not automatically
 834:../../LUFA/Drivers/USB/LowLevel/Endpoint.h **** 			 *  discarded once the remaining bytes has been read; the user is responsible for manually
 835:../../LUFA/Drivers/USB/LowLevel/Endpoint.h **** 			 *  discarding the last packet from the host via the \ref Endpoint_ClearOUT() macro. Between
 836:../../LUFA/Drivers/USB/LowLevel/Endpoint.h **** 			 *  each USB packet, the given stream callback function is executed repeatedly until the next
 837:../../LUFA/Drivers/USB/LowLevel/Endpoint.h **** 			 *  packet is ready, allowing for early aborts of stream transfers.
 838:../../LUFA/Drivers/USB/LowLevel/Endpoint.h **** 			 *
 839:../../LUFA/Drivers/USB/LowLevel/Endpoint.h **** 			 *	The callback routine should be created according to the information in \ref Group_StreamCallb
 840:../../LUFA/Drivers/USB/LowLevel/Endpoint.h **** 			 *  If the token NO_STREAM_CALLBACKS is passed via the -D option to the compiler, stream callbac
 841:../../LUFA/Drivers/USB/LowLevel/Endpoint.h **** 			 *  disabled and this function has the Callback parameter omitted.
 842:../../LUFA/Drivers/USB/LowLevel/Endpoint.h **** 			 *
 843:../../LUFA/Drivers/USB/LowLevel/Endpoint.h **** 			 *  \note This routine should not be used on CONTROL type endpoints.
 844:../../LUFA/Drivers/USB/LowLevel/Endpoint.h **** 			 *
 845:../../LUFA/Drivers/USB/LowLevel/Endpoint.h **** 			 *  \ingroup Group_EndpointStreamRW
 846:../../LUFA/Drivers/USB/LowLevel/Endpoint.h **** 			 *
 847:../../LUFA/Drivers/USB/LowLevel/Endpoint.h **** 			 *  \param[in] Length    Number of bytes to send via the currently selected endpoint.
 848:../../LUFA/Drivers/USB/LowLevel/Endpoint.h **** 			 *  \param[in] Callback  Name of a callback routine to call between successive USB packet transf
 849:../../LUFA/Drivers/USB/LowLevel/Endpoint.h **** 			 *
 850:../../LUFA/Drivers/USB/LowLevel/Endpoint.h **** 			 *  \return A value from the \ref Endpoint_Stream_RW_ErrorCodes_t enum.
 851:../../LUFA/Drivers/USB/LowLevel/Endpoint.h **** 			 */
 852:../../LUFA/Drivers/USB/LowLevel/Endpoint.h **** 			uint8_t Endpoint_Discard_Stream(uint16_t Length
 853:../../LUFA/Drivers/USB/LowLevel/Endpoint.h **** 			                                __CALLBACK_PARAM);
 854:../../LUFA/Drivers/USB/LowLevel/Endpoint.h **** 
 855:../../LUFA/Drivers/USB/LowLevel/Endpoint.h **** 			/** Writes the given number of bytes to the endpoint from the given buffer in little endian,
 856:../../LUFA/Drivers/USB/LowLevel/Endpoint.h **** 			 *  sending full packets to the host as needed. The last packet filled is not automatically sent
 857:../../LUFA/Drivers/USB/LowLevel/Endpoint.h **** 			 *  the user is responsible for manually sending the last written packet to the host via the
 858:../../LUFA/Drivers/USB/LowLevel/Endpoint.h **** 			 *  \ref Endpoint_ClearIN() macro. Between each USB packet, the given stream callback function
 859:../../LUFA/Drivers/USB/LowLevel/Endpoint.h **** 			 *  is executed repeatedly until the endpoint is ready to accept the next packet, allowing for e
 860:../../LUFA/Drivers/USB/LowLevel/Endpoint.h **** 			 *  aborts of stream transfers.
 861:../../LUFA/Drivers/USB/LowLevel/Endpoint.h **** 			 *
 862:../../LUFA/Drivers/USB/LowLevel/Endpoint.h **** 			 *	The callback routine should be created according to the information in \ref Group_StreamCallb
 863:../../LUFA/Drivers/USB/LowLevel/Endpoint.h **** 			 *  If the token NO_STREAM_CALLBACKS is passed via the -D option to the compiler, stream callbac
 864:../../LUFA/Drivers/USB/LowLevel/Endpoint.h **** 			 *  disabled and this function has the Callback parameter omitted.
 865:../../LUFA/Drivers/USB/LowLevel/Endpoint.h **** 			 *
 866:../../LUFA/Drivers/USB/LowLevel/Endpoint.h **** 			 *  \note This routine should not be used on CONTROL type endpoints.
 867:../../LUFA/Drivers/USB/LowLevel/Endpoint.h **** 			 *
 868:../../LUFA/Drivers/USB/LowLevel/Endpoint.h **** 			 *  \ingroup Group_EndpointStreamRW
 869:../../LUFA/Drivers/USB/LowLevel/Endpoint.h **** 			 *
 870:../../LUFA/Drivers/USB/LowLevel/Endpoint.h **** 			 *  \param[in] Buffer    Pointer to the source data buffer to read from.
 871:../../LUFA/Drivers/USB/LowLevel/Endpoint.h **** 			 *  \param[in] Length    Number of bytes to read for the currently selected endpoint into the bu
 872:../../LUFA/Drivers/USB/LowLevel/Endpoint.h **** 			 *  \param[in] Callback  Name of a callback routine to call between successive USB packet transf
 873:../../LUFA/Drivers/USB/LowLevel/Endpoint.h **** 			 *
 874:../../LUFA/Drivers/USB/LowLevel/Endpoint.h **** 			 *  \return A value from the \ref Endpoint_Stream_RW_ErrorCodes_t enum.
 875:../../LUFA/Drivers/USB/LowLevel/Endpoint.h **** 			 */
 876:../../LUFA/Drivers/USB/LowLevel/Endpoint.h **** 			uint8_t Endpoint_Write_Stream_LE(const void* Buffer,
 877:../../LUFA/Drivers/USB/LowLevel/Endpoint.h **** 			                                 uint16_t Length
 878:../../LUFA/Drivers/USB/LowLevel/Endpoint.h **** 			                                 __CALLBACK_PARAM) ATTR_NON_NULL_PTR_ARG(1);
 879:../../LUFA/Drivers/USB/LowLevel/Endpoint.h **** 
 880:../../LUFA/Drivers/USB/LowLevel/Endpoint.h **** 			/** EEPROM buffer source version of \ref Endpoint_Write_Stream_LE().
 881:../../LUFA/Drivers/USB/LowLevel/Endpoint.h **** 			 *
 882:../../LUFA/Drivers/USB/LowLevel/Endpoint.h **** 			 *  \ingroup Group_EndpointStreamRW
 883:../../LUFA/Drivers/USB/LowLevel/Endpoint.h **** 			 *
 884:../../LUFA/Drivers/USB/LowLevel/Endpoint.h **** 			 *  \param[in] Buffer    Pointer to the source data buffer to read from.
 885:../../LUFA/Drivers/USB/LowLevel/Endpoint.h **** 			 *  \param[in] Length    Number of bytes to read for the currently selected endpoint into the bu
 886:../../LUFA/Drivers/USB/LowLevel/Endpoint.h **** 			 *  \param[in] Callback  Name of a callback routine to call between successive USB packet transf
 887:../../LUFA/Drivers/USB/LowLevel/Endpoint.h **** 			 *
 888:../../LUFA/Drivers/USB/LowLevel/Endpoint.h **** 			 *  \return A value from the \ref Endpoint_Stream_RW_ErrorCodes_t enum.
 889:../../LUFA/Drivers/USB/LowLevel/Endpoint.h **** 			 */
 890:../../LUFA/Drivers/USB/LowLevel/Endpoint.h **** 			uint8_t Endpoint_Write_EStream_LE(const void* Buffer,
 891:../../LUFA/Drivers/USB/LowLevel/Endpoint.h **** 			                                  uint16_t Length
 892:../../LUFA/Drivers/USB/LowLevel/Endpoint.h **** 			                                  __CALLBACK_PARAM) ATTR_NON_NULL_PTR_ARG(1);
 893:../../LUFA/Drivers/USB/LowLevel/Endpoint.h **** 
 894:../../LUFA/Drivers/USB/LowLevel/Endpoint.h **** 			/** FLASH buffer source version of \ref Endpoint_Write_Stream_LE().
 895:../../LUFA/Drivers/USB/LowLevel/Endpoint.h **** 			 *
 896:../../LUFA/Drivers/USB/LowLevel/Endpoint.h **** 			 *  \pre The FLASH data must be located in the first 64KB of FLASH for this function to work cor
 897:../../LUFA/Drivers/USB/LowLevel/Endpoint.h **** 			 *
 898:../../LUFA/Drivers/USB/LowLevel/Endpoint.h **** 			 *  \ingroup Group_EndpointStreamRW
 899:../../LUFA/Drivers/USB/LowLevel/Endpoint.h **** 			 *
 900:../../LUFA/Drivers/USB/LowLevel/Endpoint.h **** 			 *  \param[in] Buffer    Pointer to the source data buffer to read from.
 901:../../LUFA/Drivers/USB/LowLevel/Endpoint.h **** 			 *  \param[in] Length    Number of bytes to read for the currently selected endpoint into the bu
 902:../../LUFA/Drivers/USB/LowLevel/Endpoint.h **** 			 *  \param[in] Callback  Name of a callback routine to call between successive USB packet transf
 903:../../LUFA/Drivers/USB/LowLevel/Endpoint.h **** 			 *
 904:../../LUFA/Drivers/USB/LowLevel/Endpoint.h **** 			 *  \return A value from the \ref Endpoint_Stream_RW_ErrorCodes_t enum.
 905:../../LUFA/Drivers/USB/LowLevel/Endpoint.h **** 			 */
 906:../../LUFA/Drivers/USB/LowLevel/Endpoint.h **** 			uint8_t Endpoint_Write_PStream_LE(const void* Buffer,
 907:../../LUFA/Drivers/USB/LowLevel/Endpoint.h **** 			                                  uint16_t Length
 908:../../LUFA/Drivers/USB/LowLevel/Endpoint.h **** 			                                  __CALLBACK_PARAM) ATTR_NON_NULL_PTR_ARG(1);
 909:../../LUFA/Drivers/USB/LowLevel/Endpoint.h **** 
 910:../../LUFA/Drivers/USB/LowLevel/Endpoint.h **** 			/** Writes the given number of bytes to the endpoint from the given buffer in big endian,
 911:../../LUFA/Drivers/USB/LowLevel/Endpoint.h **** 			 *  sending full packets to the host as needed. The last packet filled is not automatically sent
 912:../../LUFA/Drivers/USB/LowLevel/Endpoint.h **** 			 *  the user is responsible for manually sending the last written packet to the host via the
 913:../../LUFA/Drivers/USB/LowLevel/Endpoint.h **** 			 *  \ref Endpoint_ClearIN() macro. Between each USB packet, the given stream callback function
 914:../../LUFA/Drivers/USB/LowLevel/Endpoint.h **** 			 *  is executed repeatedly until the endpoint is ready to accept the next packet, allowing for e
 915:../../LUFA/Drivers/USB/LowLevel/Endpoint.h **** 			 *  aborts of stream transfers.
 916:../../LUFA/Drivers/USB/LowLevel/Endpoint.h **** 			 *
 917:../../LUFA/Drivers/USB/LowLevel/Endpoint.h **** 			 *	The callback routine should be created according to the information in \ref Group_StreamCallb
 918:../../LUFA/Drivers/USB/LowLevel/Endpoint.h **** 			 *  If the token NO_STREAM_CALLBACKS is passed via the -D option to the compiler, stream callbac
 919:../../LUFA/Drivers/USB/LowLevel/Endpoint.h **** 			 *  disabled and this function has the Callback parameter omitted.
 920:../../LUFA/Drivers/USB/LowLevel/Endpoint.h **** 			 *
 921:../../LUFA/Drivers/USB/LowLevel/Endpoint.h **** 			 *  \note This routine should not be used on CONTROL type endpoints.
 922:../../LUFA/Drivers/USB/LowLevel/Endpoint.h **** 			 *
 923:../../LUFA/Drivers/USB/LowLevel/Endpoint.h **** 			 *  \ingroup Group_EndpointStreamRW
 924:../../LUFA/Drivers/USB/LowLevel/Endpoint.h **** 			 *
 925:../../LUFA/Drivers/USB/LowLevel/Endpoint.h **** 			 *  \param[in] Buffer    Pointer to the source data buffer to read from.
 926:../../LUFA/Drivers/USB/LowLevel/Endpoint.h **** 			 *  \param[in] Length    Number of bytes to read for the currently selected endpoint into the bu
 927:../../LUFA/Drivers/USB/LowLevel/Endpoint.h **** 			 *  \param[in] Callback  Name of a callback routine to call between successive USB packet transf
 928:../../LUFA/Drivers/USB/LowLevel/Endpoint.h **** 			 *
 929:../../LUFA/Drivers/USB/LowLevel/Endpoint.h **** 			 *  \return A value from the \ref Endpoint_Stream_RW_ErrorCodes_t enum.
 930:../../LUFA/Drivers/USB/LowLevel/Endpoint.h **** 			 */
 931:../../LUFA/Drivers/USB/LowLevel/Endpoint.h **** 			uint8_t Endpoint_Write_Stream_BE(const void* Buffer,
 932:../../LUFA/Drivers/USB/LowLevel/Endpoint.h **** 			                                 uint16_t Length
 933:../../LUFA/Drivers/USB/LowLevel/Endpoint.h **** 			                                 __CALLBACK_PARAM) ATTR_NON_NULL_PTR_ARG(1);
 934:../../LUFA/Drivers/USB/LowLevel/Endpoint.h **** 
 935:../../LUFA/Drivers/USB/LowLevel/Endpoint.h **** 			/** EEPROM buffer source version of \ref Endpoint_Write_Stream_BE().
 936:../../LUFA/Drivers/USB/LowLevel/Endpoint.h **** 			 *
 937:../../LUFA/Drivers/USB/LowLevel/Endpoint.h **** 			 *  \ingroup Group_EndpointStreamRW
 938:../../LUFA/Drivers/USB/LowLevel/Endpoint.h **** 			 *
 939:../../LUFA/Drivers/USB/LowLevel/Endpoint.h **** 			 *  \param[in] Buffer    Pointer to the source data buffer to read from.
 940:../../LUFA/Drivers/USB/LowLevel/Endpoint.h **** 			 *  \param[in] Length    Number of bytes to read for the currently selected endpoint into the bu
 941:../../LUFA/Drivers/USB/LowLevel/Endpoint.h **** 			 *  \param[in] Callback  Name of a callback routine to call between successive USB packet transf
 942:../../LUFA/Drivers/USB/LowLevel/Endpoint.h **** 			 *
 943:../../LUFA/Drivers/USB/LowLevel/Endpoint.h **** 			 *  \return A value from the \ref Endpoint_Stream_RW_ErrorCodes_t enum.
 944:../../LUFA/Drivers/USB/LowLevel/Endpoint.h **** 			 */
 945:../../LUFA/Drivers/USB/LowLevel/Endpoint.h **** 			uint8_t Endpoint_Write_EStream_BE(const void* Buffer,
 946:../../LUFA/Drivers/USB/LowLevel/Endpoint.h **** 			                                  uint16_t Length
 947:../../LUFA/Drivers/USB/LowLevel/Endpoint.h **** 			                                  __CALLBACK_PARAM) ATTR_NON_NULL_PTR_ARG(1);
 948:../../LUFA/Drivers/USB/LowLevel/Endpoint.h **** 
 949:../../LUFA/Drivers/USB/LowLevel/Endpoint.h **** 			/** FLASH buffer source version of \ref Endpoint_Write_Stream_BE().
 950:../../LUFA/Drivers/USB/LowLevel/Endpoint.h **** 			 *
 951:../../LUFA/Drivers/USB/LowLevel/Endpoint.h **** 			 *  \pre The FLASH data must be located in the first 64KB of FLASH for this function to work cor
 952:../../LUFA/Drivers/USB/LowLevel/Endpoint.h **** 			 *
 953:../../LUFA/Drivers/USB/LowLevel/Endpoint.h **** 			 *  \ingroup Group_EndpointStreamRW
 954:../../LUFA/Drivers/USB/LowLevel/Endpoint.h **** 			 *
 955:../../LUFA/Drivers/USB/LowLevel/Endpoint.h **** 			 *  \param[in] Buffer    Pointer to the source data buffer to read from.
 956:../../LUFA/Drivers/USB/LowLevel/Endpoint.h **** 			 *  \param[in] Length    Number of bytes to read for the currently selected endpoint into the bu
 957:../../LUFA/Drivers/USB/LowLevel/Endpoint.h **** 			 *  \param[in] Callback  Name of a callback routine to call between successive USB packet transf
 958:../../LUFA/Drivers/USB/LowLevel/Endpoint.h **** 			 *
 959:../../LUFA/Drivers/USB/LowLevel/Endpoint.h **** 			 *  \return A value from the \ref Endpoint_Stream_RW_ErrorCodes_t enum.
 960:../../LUFA/Drivers/USB/LowLevel/Endpoint.h **** 			 */
 961:../../LUFA/Drivers/USB/LowLevel/Endpoint.h **** 			uint8_t Endpoint_Write_PStream_BE(const void* Buffer,
 962:../../LUFA/Drivers/USB/LowLevel/Endpoint.h **** 			                                  uint16_t Length
 963:../../LUFA/Drivers/USB/LowLevel/Endpoint.h **** 			                                  __CALLBACK_PARAM) ATTR_NON_NULL_PTR_ARG(1);
 964:../../LUFA/Drivers/USB/LowLevel/Endpoint.h **** 
 965:../../LUFA/Drivers/USB/LowLevel/Endpoint.h **** 			/** Reads the given number of bytes from the endpoint from the given buffer in little endian,
 966:../../LUFA/Drivers/USB/LowLevel/Endpoint.h **** 			 *  discarding fully read packets from the host as needed. The last packet is not automatically
 967:../../LUFA/Drivers/USB/LowLevel/Endpoint.h **** 			 *  discarded once the remaining bytes has been read; the user is responsible for manually
 968:../../LUFA/Drivers/USB/LowLevel/Endpoint.h **** 			 *  discarding the last packet from the host via the \ref Endpoint_ClearOUT() macro. Between
 969:../../LUFA/Drivers/USB/LowLevel/Endpoint.h **** 			 *  each USB packet, the given stream callback function is executed repeatedly until the endpoin
 970:../../LUFA/Drivers/USB/LowLevel/Endpoint.h **** 			 *  is ready to accept the next packet, allowing for early aborts of stream transfers.
 971:../../LUFA/Drivers/USB/LowLevel/Endpoint.h **** 			 *
 972:../../LUFA/Drivers/USB/LowLevel/Endpoint.h **** 			 *	The callback routine should be created according to the information in \ref Group_StreamCallb
 973:../../LUFA/Drivers/USB/LowLevel/Endpoint.h **** 			 *  If the token NO_STREAM_CALLBACKS is passed via the -D option to the compiler, stream callbac
 974:../../LUFA/Drivers/USB/LowLevel/Endpoint.h **** 			 *  disabled and this function has the Callback parameter omitted.
 975:../../LUFA/Drivers/USB/LowLevel/Endpoint.h **** 			 *
 976:../../LUFA/Drivers/USB/LowLevel/Endpoint.h **** 			 *  \note This routine should not be used on CONTROL type endpoints.
 977:../../LUFA/Drivers/USB/LowLevel/Endpoint.h **** 			 *
 978:../../LUFA/Drivers/USB/LowLevel/Endpoint.h **** 			 *  \ingroup Group_EndpointStreamRW
 979:../../LUFA/Drivers/USB/LowLevel/Endpoint.h **** 			 *
 980:../../LUFA/Drivers/USB/LowLevel/Endpoint.h **** 			 *  \param[out] Buffer    Pointer to the destination data buffer to write to.
 981:../../LUFA/Drivers/USB/LowLevel/Endpoint.h **** 			 *  \param[in]  Length    Number of bytes to send via the currently selected endpoint.
 982:../../LUFA/Drivers/USB/LowLevel/Endpoint.h **** 			 *  \param[in]  Callback  Name of a callback routine to call between successive USB packet trans
 983:../../LUFA/Drivers/USB/LowLevel/Endpoint.h **** 			 *
 984:../../LUFA/Drivers/USB/LowLevel/Endpoint.h **** 			 *  \return A value from the \ref Endpoint_Stream_RW_ErrorCodes_t enum.
 985:../../LUFA/Drivers/USB/LowLevel/Endpoint.h **** 			 */
 986:../../LUFA/Drivers/USB/LowLevel/Endpoint.h **** 			uint8_t Endpoint_Read_Stream_LE(void* Buffer,
 987:../../LUFA/Drivers/USB/LowLevel/Endpoint.h **** 			                                uint16_t Length
 988:../../LUFA/Drivers/USB/LowLevel/Endpoint.h **** 			                                __CALLBACK_PARAM) ATTR_NON_NULL_PTR_ARG(1);
 989:../../LUFA/Drivers/USB/LowLevel/Endpoint.h **** 
 990:../../LUFA/Drivers/USB/LowLevel/Endpoint.h **** 			/** EEPROM buffer source version of \ref Endpoint_Read_Stream_LE().
 991:../../LUFA/Drivers/USB/LowLevel/Endpoint.h **** 			 *
 992:../../LUFA/Drivers/USB/LowLevel/Endpoint.h **** 			 *  \ingroup Group_EndpointStreamRW
 993:../../LUFA/Drivers/USB/LowLevel/Endpoint.h **** 			 *
 994:../../LUFA/Drivers/USB/LowLevel/Endpoint.h **** 			 *  \param[out] Buffer    Pointer to the destination data buffer to write to, located in EEPROM 
 995:../../LUFA/Drivers/USB/LowLevel/Endpoint.h **** 			 *  \param[in]  Length    Number of bytes to send via the currently selected endpoint.
 996:../../LUFA/Drivers/USB/LowLevel/Endpoint.h **** 			 *  \param[in]  Callback  Name of a callback routine to call between successive USB packet trans
 997:../../LUFA/Drivers/USB/LowLevel/Endpoint.h **** 			 *
 998:../../LUFA/Drivers/USB/LowLevel/Endpoint.h **** 			 *  \return A value from the \ref Endpoint_Stream_RW_ErrorCodes_t enum.
 999:../../LUFA/Drivers/USB/LowLevel/Endpoint.h **** 			 */
1000:../../LUFA/Drivers/USB/LowLevel/Endpoint.h **** 			uint8_t Endpoint_Read_EStream_LE(void* Buffer,
1001:../../LUFA/Drivers/USB/LowLevel/Endpoint.h **** 			                                 uint16_t Length
1002:../../LUFA/Drivers/USB/LowLevel/Endpoint.h **** 			                                 __CALLBACK_PARAM) ATTR_NON_NULL_PTR_ARG(1);
1003:../../LUFA/Drivers/USB/LowLevel/Endpoint.h **** 			
1004:../../LUFA/Drivers/USB/LowLevel/Endpoint.h **** 			/** Reads the given number of bytes from the endpoint from the given buffer in big endian,
1005:../../LUFA/Drivers/USB/LowLevel/Endpoint.h **** 			 *  discarding fully read packets from the host as needed. The last packet is not automatically
1006:../../LUFA/Drivers/USB/LowLevel/Endpoint.h **** 			 *  discarded once the remaining bytes has been read; the user is responsible for manually
1007:../../LUFA/Drivers/USB/LowLevel/Endpoint.h **** 			 *  discarding the last packet from the host via the \ref Endpoint_ClearOUT() macro. Between
1008:../../LUFA/Drivers/USB/LowLevel/Endpoint.h **** 			 *  each USB packet, the given stream callback function is executed repeatedly until the endpoin
1009:../../LUFA/Drivers/USB/LowLevel/Endpoint.h **** 			 *  is ready to accept the next packet, allowing for early aborts of stream transfers.
1010:../../LUFA/Drivers/USB/LowLevel/Endpoint.h **** 			 *
1011:../../LUFA/Drivers/USB/LowLevel/Endpoint.h **** 			 *	The callback routine should be created according to the information in \ref Group_StreamCallb
1012:../../LUFA/Drivers/USB/LowLevel/Endpoint.h **** 			 *  If the token NO_STREAM_CALLBACKS is passed via the -D option to the compiler, stream callbac
1013:../../LUFA/Drivers/USB/LowLevel/Endpoint.h **** 			 *  disabled and this function has the Callback parameter omitted.
1014:../../LUFA/Drivers/USB/LowLevel/Endpoint.h **** 			 *
1015:../../LUFA/Drivers/USB/LowLevel/Endpoint.h **** 			 *  \note This routine should not be used on CONTROL type endpoints.
1016:../../LUFA/Drivers/USB/LowLevel/Endpoint.h **** 			 *
1017:../../LUFA/Drivers/USB/LowLevel/Endpoint.h **** 			 *  \ingroup Group_EndpointStreamRW
1018:../../LUFA/Drivers/USB/LowLevel/Endpoint.h **** 			 *
1019:../../LUFA/Drivers/USB/LowLevel/Endpoint.h **** 			 *  \param[out] Buffer    Pointer to the destination data buffer to write to.
1020:../../LUFA/Drivers/USB/LowLevel/Endpoint.h **** 			 *  \param[in]  Length    Number of bytes to send via the currently selected endpoint.
1021:../../LUFA/Drivers/USB/LowLevel/Endpoint.h **** 			 *  \param[in]  Callback  Name of a callback routine to call between successive USB packet trans
1022:../../LUFA/Drivers/USB/LowLevel/Endpoint.h **** 			 *
1023:../../LUFA/Drivers/USB/LowLevel/Endpoint.h **** 			 *  \return A value from the \ref Endpoint_Stream_RW_ErrorCodes_t enum.
1024:../../LUFA/Drivers/USB/LowLevel/Endpoint.h **** 			 */
1025:../../LUFA/Drivers/USB/LowLevel/Endpoint.h **** 			uint8_t Endpoint_Read_Stream_BE(void* Buffer,
1026:../../LUFA/Drivers/USB/LowLevel/Endpoint.h **** 			                                uint16_t Length
1027:../../LUFA/Drivers/USB/LowLevel/Endpoint.h **** 			                                __CALLBACK_PARAM) ATTR_NON_NULL_PTR_ARG(1);
1028:../../LUFA/Drivers/USB/LowLevel/Endpoint.h **** 
1029:../../LUFA/Drivers/USB/LowLevel/Endpoint.h **** 			/** EEPROM buffer source version of \ref Endpoint_Read_Stream_BE().
1030:../../LUFA/Drivers/USB/LowLevel/Endpoint.h **** 			 *
1031:../../LUFA/Drivers/USB/LowLevel/Endpoint.h **** 			 *  \ingroup Group_EndpointStreamRW
1032:../../LUFA/Drivers/USB/LowLevel/Endpoint.h **** 			 *
1033:../../LUFA/Drivers/USB/LowLevel/Endpoint.h **** 			 *  \param[out] Buffer    Pointer to the destination data buffer to write to, located in EEPROM 
1034:../../LUFA/Drivers/USB/LowLevel/Endpoint.h **** 			 *  \param[in]  Length    Number of bytes to send via the currently selected endpoint.
1035:../../LUFA/Drivers/USB/LowLevel/Endpoint.h **** 			 *  \param[in]  Callback  Name of a callback routine to call between successive USB packet trans
1036:../../LUFA/Drivers/USB/LowLevel/Endpoint.h **** 			 *
1037:../../LUFA/Drivers/USB/LowLevel/Endpoint.h **** 			 *  \return A value from the \ref Endpoint_Stream_RW_ErrorCodes_t enum.
1038:../../LUFA/Drivers/USB/LowLevel/Endpoint.h **** 			 */
1039:../../LUFA/Drivers/USB/LowLevel/Endpoint.h **** 			uint8_t Endpoint_Read_EStream_BE(void* Buffer,
1040:../../LUFA/Drivers/USB/LowLevel/Endpoint.h **** 			                                 uint16_t Length
1041:../../LUFA/Drivers/USB/LowLevel/Endpoint.h **** 			                                 __CALLBACK_PARAM) ATTR_NON_NULL_PTR_ARG(1);
1042:../../LUFA/Drivers/USB/LowLevel/Endpoint.h **** 
1043:../../LUFA/Drivers/USB/LowLevel/Endpoint.h **** 			/** Writes the given number of bytes to the CONTROL type endpoint from the given buffer in littl
1044:../../LUFA/Drivers/USB/LowLevel/Endpoint.h **** 			 *  sending full packets to the host as needed. The host OUT acknowledgement is not automaticall
1045:../../LUFA/Drivers/USB/LowLevel/Endpoint.h **** 			 *  in both failure and success states; the user is responsible for manually clearing the setup 
1046:../../LUFA/Drivers/USB/LowLevel/Endpoint.h **** 			 *  finalize the transfer via the \ref Endpoint_ClearOUT() macro.
1047:../../LUFA/Drivers/USB/LowLevel/Endpoint.h **** 			 *
1048:../../LUFA/Drivers/USB/LowLevel/Endpoint.h **** 			 *  \note This function automatically clears the control transfer's status stage. Do not manuall
1049:../../LUFA/Drivers/USB/LowLevel/Endpoint.h **** 			 *        to clear the status stage when using this routine in a control transaction.
1050:../../LUFA/Drivers/USB/LowLevel/Endpoint.h **** 			 *        \n\n
1051:../../LUFA/Drivers/USB/LowLevel/Endpoint.h **** 			 *
1052:../../LUFA/Drivers/USB/LowLevel/Endpoint.h **** 			 *  \note This routine should only be used on CONTROL type endpoints.
1053:../../LUFA/Drivers/USB/LowLevel/Endpoint.h **** 			 *
1054:../../LUFA/Drivers/USB/LowLevel/Endpoint.h **** 			 *  \warning Unlike the standard stream read/write commands, the control stream commands cannot 
1055:../../LUFA/Drivers/USB/LowLevel/Endpoint.h **** 			 *           together; i.e. the entire stream data must be read or written at the one time.
1056:../../LUFA/Drivers/USB/LowLevel/Endpoint.h **** 			 *
1057:../../LUFA/Drivers/USB/LowLevel/Endpoint.h **** 			 *  \ingroup Group_EndpointStreamRW
1058:../../LUFA/Drivers/USB/LowLevel/Endpoint.h **** 			 *
1059:../../LUFA/Drivers/USB/LowLevel/Endpoint.h **** 			 *  \param[in] Buffer  Pointer to the source data buffer to read from.
1060:../../LUFA/Drivers/USB/LowLevel/Endpoint.h **** 			 *  \param[in] Length  Number of bytes to read for the currently selected endpoint into the buff
1061:../../LUFA/Drivers/USB/LowLevel/Endpoint.h **** 			 *
1062:../../LUFA/Drivers/USB/LowLevel/Endpoint.h **** 			 *  \return A value from the \ref Endpoint_ControlStream_RW_ErrorCodes_t enum.
1063:../../LUFA/Drivers/USB/LowLevel/Endpoint.h **** 			 */
1064:../../LUFA/Drivers/USB/LowLevel/Endpoint.h **** 			uint8_t Endpoint_Write_Control_Stream_LE(const void* Buffer,
1065:../../LUFA/Drivers/USB/LowLevel/Endpoint.h **** 			                                         uint16_t Length) ATTR_NON_NULL_PTR_ARG(1);
1066:../../LUFA/Drivers/USB/LowLevel/Endpoint.h **** 
1067:../../LUFA/Drivers/USB/LowLevel/Endpoint.h **** 			/** EEPROM buffer source version of Endpoint_Write_Control_Stream_LE.
1068:../../LUFA/Drivers/USB/LowLevel/Endpoint.h **** 			 *
1069:../../LUFA/Drivers/USB/LowLevel/Endpoint.h **** 			 *  \note This function automatically clears the control transfer's status stage. Do not manuall
1070:../../LUFA/Drivers/USB/LowLevel/Endpoint.h **** 			 *        to clear the status stage when using this routine in a control transaction.
1071:../../LUFA/Drivers/USB/LowLevel/Endpoint.h **** 			 *        \n\n
1072:../../LUFA/Drivers/USB/LowLevel/Endpoint.h **** 			 *
1073:../../LUFA/Drivers/USB/LowLevel/Endpoint.h **** 			 *  \note This routine should only be used on CONTROL type endpoints.
1074:../../LUFA/Drivers/USB/LowLevel/Endpoint.h **** 			 *
1075:../../LUFA/Drivers/USB/LowLevel/Endpoint.h **** 			 *  \warning Unlike the standard stream read/write commands, the control stream commands cannot 
1076:../../LUFA/Drivers/USB/LowLevel/Endpoint.h **** 			 *           together; i.e. the entire stream data must be read or written at the one time.
1077:../../LUFA/Drivers/USB/LowLevel/Endpoint.h **** 			 *
1078:../../LUFA/Drivers/USB/LowLevel/Endpoint.h **** 			 *  \ingroup Group_EndpointStreamRW
1079:../../LUFA/Drivers/USB/LowLevel/Endpoint.h **** 			 *
1080:../../LUFA/Drivers/USB/LowLevel/Endpoint.h **** 			 *  \param[in] Buffer  Pointer to the source data buffer to read from.
1081:../../LUFA/Drivers/USB/LowLevel/Endpoint.h **** 			 *  \param[in] Length  Number of bytes to read for the currently selected endpoint into the buff
1082:../../LUFA/Drivers/USB/LowLevel/Endpoint.h **** 			 *
1083:../../LUFA/Drivers/USB/LowLevel/Endpoint.h **** 			 *  \return A value from the \ref Endpoint_ControlStream_RW_ErrorCodes_t enum.
1084:../../LUFA/Drivers/USB/LowLevel/Endpoint.h **** 			 */
1085:../../LUFA/Drivers/USB/LowLevel/Endpoint.h **** 			uint8_t Endpoint_Write_Control_EStream_LE(const void* Buffer,
1086:../../LUFA/Drivers/USB/LowLevel/Endpoint.h **** 			                                          uint16_t Length) ATTR_NON_NULL_PTR_ARG(1);
1087:../../LUFA/Drivers/USB/LowLevel/Endpoint.h **** 
1088:../../LUFA/Drivers/USB/LowLevel/Endpoint.h **** 			/** FLASH buffer source version of \ref Endpoint_Write_Control_Stream_LE().
1089:../../LUFA/Drivers/USB/LowLevel/Endpoint.h **** 			 *
1090:../../LUFA/Drivers/USB/LowLevel/Endpoint.h **** 			 *  \pre The FLASH data must be located in the first 64KB of FLASH for this function to work cor
1091:../../LUFA/Drivers/USB/LowLevel/Endpoint.h **** 			 *
1092:../../LUFA/Drivers/USB/LowLevel/Endpoint.h **** 			 *  \note This function automatically clears the control transfer's status stage. Do not manuall
1093:../../LUFA/Drivers/USB/LowLevel/Endpoint.h **** 			 *        to clear the status stage when using this routine in a control transaction.
1094:../../LUFA/Drivers/USB/LowLevel/Endpoint.h **** 			 *        \n\n
1095:../../LUFA/Drivers/USB/LowLevel/Endpoint.h **** 			 *
1096:../../LUFA/Drivers/USB/LowLevel/Endpoint.h **** 			 *  \note This routine should only be used on CONTROL type endpoints.
1097:../../LUFA/Drivers/USB/LowLevel/Endpoint.h **** 			 *
1098:../../LUFA/Drivers/USB/LowLevel/Endpoint.h **** 			 *  \warning Unlike the standard stream read/write commands, the control stream commands cannot 
1099:../../LUFA/Drivers/USB/LowLevel/Endpoint.h **** 			 *           together; i.e. the entire stream data must be read or written at the one time.
1100:../../LUFA/Drivers/USB/LowLevel/Endpoint.h **** 			 *
1101:../../LUFA/Drivers/USB/LowLevel/Endpoint.h **** 			 *  \ingroup Group_EndpointStreamRW
1102:../../LUFA/Drivers/USB/LowLevel/Endpoint.h **** 			 *
1103:../../LUFA/Drivers/USB/LowLevel/Endpoint.h **** 			 *  \param[in] Buffer  Pointer to the source data buffer to read from.
1104:../../LUFA/Drivers/USB/LowLevel/Endpoint.h **** 			 *  \param[in] Length  Number of bytes to read for the currently selected endpoint into the buff
1105:../../LUFA/Drivers/USB/LowLevel/Endpoint.h **** 			 *
1106:../../LUFA/Drivers/USB/LowLevel/Endpoint.h **** 			 *  \return A value from the \ref Endpoint_ControlStream_RW_ErrorCodes_t enum.
1107:../../LUFA/Drivers/USB/LowLevel/Endpoint.h **** 			 */
1108:../../LUFA/Drivers/USB/LowLevel/Endpoint.h **** 			uint8_t Endpoint_Write_Control_PStream_LE(const void* Buffer,
1109:../../LUFA/Drivers/USB/LowLevel/Endpoint.h **** 			                                          uint16_t Length) ATTR_NON_NULL_PTR_ARG(1);
1110:../../LUFA/Drivers/USB/LowLevel/Endpoint.h **** 
1111:../../LUFA/Drivers/USB/LowLevel/Endpoint.h **** 			/** Writes the given number of bytes to the CONTROL type endpoint from the given buffer in big e
1112:../../LUFA/Drivers/USB/LowLevel/Endpoint.h **** 			 *  sending full packets to the host as needed. The host OUT acknowledgement is not automaticall
1113:../../LUFA/Drivers/USB/LowLevel/Endpoint.h **** 			 *  in both failure and success states; the user is responsible for manually clearing the setup 
1114:../../LUFA/Drivers/USB/LowLevel/Endpoint.h **** 			 *  finalize the transfer via the \ref Endpoint_ClearOUT() macro.
1115:../../LUFA/Drivers/USB/LowLevel/Endpoint.h **** 			 *
1116:../../LUFA/Drivers/USB/LowLevel/Endpoint.h **** 			 *  \note This function automatically clears the control transfer's status stage. Do not manuall
1117:../../LUFA/Drivers/USB/LowLevel/Endpoint.h **** 			 *        to clear the status stage when using this routine in a control transaction.
1118:../../LUFA/Drivers/USB/LowLevel/Endpoint.h **** 			 *        \n\n
1119:../../LUFA/Drivers/USB/LowLevel/Endpoint.h **** 			 *
1120:../../LUFA/Drivers/USB/LowLevel/Endpoint.h **** 			 *  \note This routine should only be used on CONTROL type endpoints.
1121:../../LUFA/Drivers/USB/LowLevel/Endpoint.h **** 			 *
1122:../../LUFA/Drivers/USB/LowLevel/Endpoint.h **** 			 *  \warning Unlike the standard stream read/write commands, the control stream commands cannot 
1123:../../LUFA/Drivers/USB/LowLevel/Endpoint.h **** 			 *           together; i.e. the entire stream data must be read or written at the one time.
1124:../../LUFA/Drivers/USB/LowLevel/Endpoint.h **** 			 *
1125:../../LUFA/Drivers/USB/LowLevel/Endpoint.h **** 			 *  \ingroup Group_EndpointStreamRW
1126:../../LUFA/Drivers/USB/LowLevel/Endpoint.h **** 			 *
1127:../../LUFA/Drivers/USB/LowLevel/Endpoint.h **** 			 *  \param[in] Buffer  Pointer to the source data buffer to read from.
1128:../../LUFA/Drivers/USB/LowLevel/Endpoint.h **** 			 *  \param[in] Length  Number of bytes to read for the currently selected endpoint into the buff
1129:../../LUFA/Drivers/USB/LowLevel/Endpoint.h **** 			 *
1130:../../LUFA/Drivers/USB/LowLevel/Endpoint.h **** 			 *  \return A value from the \ref Endpoint_ControlStream_RW_ErrorCodes_t enum.
1131:../../LUFA/Drivers/USB/LowLevel/Endpoint.h **** 			 */
1132:../../LUFA/Drivers/USB/LowLevel/Endpoint.h **** 			uint8_t Endpoint_Write_Control_Stream_BE(const void* Buffer,
1133:../../LUFA/Drivers/USB/LowLevel/Endpoint.h **** 			                                         uint16_t Length) ATTR_NON_NULL_PTR_ARG(1);
1134:../../LUFA/Drivers/USB/LowLevel/Endpoint.h **** 
1135:../../LUFA/Drivers/USB/LowLevel/Endpoint.h **** 			/** EEPROM buffer source version of \ref Endpoint_Write_Control_Stream_BE().
1136:../../LUFA/Drivers/USB/LowLevel/Endpoint.h **** 			 *
1137:../../LUFA/Drivers/USB/LowLevel/Endpoint.h **** 			 *  \note This function automatically clears the control transfer's status stage. Do not manuall
1138:../../LUFA/Drivers/USB/LowLevel/Endpoint.h **** 			 *        to clear the status stage when using this routine in a control transaction.
1139:../../LUFA/Drivers/USB/LowLevel/Endpoint.h **** 			 *        \n\n
1140:../../LUFA/Drivers/USB/LowLevel/Endpoint.h **** 			 *
1141:../../LUFA/Drivers/USB/LowLevel/Endpoint.h **** 			 *  \note This routine should only be used on CONTROL type endpoints.
1142:../../LUFA/Drivers/USB/LowLevel/Endpoint.h **** 			 *
1143:../../LUFA/Drivers/USB/LowLevel/Endpoint.h **** 			 *  \warning Unlike the standard stream read/write commands, the control stream commands cannot 
1144:../../LUFA/Drivers/USB/LowLevel/Endpoint.h **** 			 *           together; i.e. the entire stream data must be read or written at the one time.
1145:../../LUFA/Drivers/USB/LowLevel/Endpoint.h **** 			 *
1146:../../LUFA/Drivers/USB/LowLevel/Endpoint.h **** 			 *  \ingroup Group_EndpointStreamRW
1147:../../LUFA/Drivers/USB/LowLevel/Endpoint.h **** 			 *
1148:../../LUFA/Drivers/USB/LowLevel/Endpoint.h **** 			 *  \param[in] Buffer  Pointer to the source data buffer to read from.
1149:../../LUFA/Drivers/USB/LowLevel/Endpoint.h **** 			 *  \param[in] Length  Number of bytes to read for the currently selected endpoint into the buff
1150:../../LUFA/Drivers/USB/LowLevel/Endpoint.h **** 			 *
1151:../../LUFA/Drivers/USB/LowLevel/Endpoint.h **** 			 *  \return A value from the \ref Endpoint_ControlStream_RW_ErrorCodes_t enum.
1152:../../LUFA/Drivers/USB/LowLevel/Endpoint.h **** 			 */
1153:../../LUFA/Drivers/USB/LowLevel/Endpoint.h **** 			uint8_t Endpoint_Write_Control_EStream_BE(const void* Buffer,
1154:../../LUFA/Drivers/USB/LowLevel/Endpoint.h **** 			                                          uint16_t Length) ATTR_NON_NULL_PTR_ARG(1);
1155:../../LUFA/Drivers/USB/LowLevel/Endpoint.h **** 
1156:../../LUFA/Drivers/USB/LowLevel/Endpoint.h **** 			/** FLASH buffer source version of \ref Endpoint_Write_Control_Stream_BE().
1157:../../LUFA/Drivers/USB/LowLevel/Endpoint.h **** 			 *
1158:../../LUFA/Drivers/USB/LowLevel/Endpoint.h **** 			 *  \pre The FLASH data must be located in the first 64KB of FLASH for this function to work cor
1159:../../LUFA/Drivers/USB/LowLevel/Endpoint.h **** 			 *
1160:../../LUFA/Drivers/USB/LowLevel/Endpoint.h **** 			 *  \note This function automatically clears the control transfer's status stage. Do not manuall
1161:../../LUFA/Drivers/USB/LowLevel/Endpoint.h **** 			 *        to clear the status stage when using this routine in a control transaction.
1162:../../LUFA/Drivers/USB/LowLevel/Endpoint.h **** 			 *        \n\n
1163:../../LUFA/Drivers/USB/LowLevel/Endpoint.h **** 			 *
1164:../../LUFA/Drivers/USB/LowLevel/Endpoint.h **** 			 *  \note This routine should only be used on CONTROL type endpoints.
1165:../../LUFA/Drivers/USB/LowLevel/Endpoint.h **** 			 *
1166:../../LUFA/Drivers/USB/LowLevel/Endpoint.h **** 			 *  \warning Unlike the standard stream read/write commands, the control stream commands cannot 
1167:../../LUFA/Drivers/USB/LowLevel/Endpoint.h **** 			 *           together; i.e. the entire stream data must be read or written at the one time.
1168:../../LUFA/Drivers/USB/LowLevel/Endpoint.h **** 			 *
1169:../../LUFA/Drivers/USB/LowLevel/Endpoint.h **** 			 *  \ingroup Group_EndpointStreamRW
1170:../../LUFA/Drivers/USB/LowLevel/Endpoint.h **** 			 *
1171:../../LUFA/Drivers/USB/LowLevel/Endpoint.h **** 			 *  \param[in] Buffer  Pointer to the source data buffer to read from.
1172:../../LUFA/Drivers/USB/LowLevel/Endpoint.h **** 			 *  \param[in] Length  Number of bytes to read for the currently selected endpoint into the buff
1173:../../LUFA/Drivers/USB/LowLevel/Endpoint.h **** 			 *
1174:../../LUFA/Drivers/USB/LowLevel/Endpoint.h **** 			 *  \return A value from the \ref Endpoint_ControlStream_RW_ErrorCodes_t enum.
1175:../../LUFA/Drivers/USB/LowLevel/Endpoint.h **** 			 */
1176:../../LUFA/Drivers/USB/LowLevel/Endpoint.h **** 			uint8_t Endpoint_Write_Control_PStream_BE(const void* Buffer,
1177:../../LUFA/Drivers/USB/LowLevel/Endpoint.h **** 			                                          uint16_t Length) ATTR_NON_NULL_PTR_ARG(1);
1178:../../LUFA/Drivers/USB/LowLevel/Endpoint.h **** 
1179:../../LUFA/Drivers/USB/LowLevel/Endpoint.h **** 			/** Reads the given number of bytes from the CONTROL endpoint from the given buffer in little en
1180:../../LUFA/Drivers/USB/LowLevel/Endpoint.h **** 			 *  discarding fully read packets from the host as needed. The device IN acknowledgement is not
1181:../../LUFA/Drivers/USB/LowLevel/Endpoint.h **** 			 *  automatically sent after success or failure states; the user is responsible for manually sen
1182:../../LUFA/Drivers/USB/LowLevel/Endpoint.h **** 			 *  setup IN to finalize the transfer via the \ref Endpoint_ClearIN() macro.
1183:../../LUFA/Drivers/USB/LowLevel/Endpoint.h **** 			 *
1184:../../LUFA/Drivers/USB/LowLevel/Endpoint.h **** 			 *  \note This function automatically clears the control transfer's status stage. Do not manuall
1185:../../LUFA/Drivers/USB/LowLevel/Endpoint.h **** 			 *        to clear the status stage when using this routine in a control transaction.
1186:../../LUFA/Drivers/USB/LowLevel/Endpoint.h **** 			 *        \n\n
1187:../../LUFA/Drivers/USB/LowLevel/Endpoint.h **** 			 *
1188:../../LUFA/Drivers/USB/LowLevel/Endpoint.h **** 			 *  \note This routine should only be used on CONTROL type endpoints.
1189:../../LUFA/Drivers/USB/LowLevel/Endpoint.h **** 			 *
1190:../../LUFA/Drivers/USB/LowLevel/Endpoint.h **** 			 *  \warning Unlike the standard stream read/write commands, the control stream commands cannot 
1191:../../LUFA/Drivers/USB/LowLevel/Endpoint.h **** 			 *           together; i.e. the entire stream data must be read or written at the one time.
1192:../../LUFA/Drivers/USB/LowLevel/Endpoint.h **** 			 *
1193:../../LUFA/Drivers/USB/LowLevel/Endpoint.h **** 			 *  \ingroup Group_EndpointStreamRW
1194:../../LUFA/Drivers/USB/LowLevel/Endpoint.h **** 			 *
1195:../../LUFA/Drivers/USB/LowLevel/Endpoint.h **** 			 *  \param[out] Buffer  Pointer to the destination data buffer to write to.
1196:../../LUFA/Drivers/USB/LowLevel/Endpoint.h **** 			 *  \param[in]  Length  Number of bytes to send via the currently selected endpoint.
1197:../../LUFA/Drivers/USB/LowLevel/Endpoint.h **** 			 *
1198:../../LUFA/Drivers/USB/LowLevel/Endpoint.h **** 			 *  \return A value from the \ref Endpoint_ControlStream_RW_ErrorCodes_t enum.
1199:../../LUFA/Drivers/USB/LowLevel/Endpoint.h **** 			 */
1200:../../LUFA/Drivers/USB/LowLevel/Endpoint.h **** 			uint8_t Endpoint_Read_Control_Stream_LE(void* Buffer,
1201:../../LUFA/Drivers/USB/LowLevel/Endpoint.h **** 			                                        uint16_t Length) ATTR_NON_NULL_PTR_ARG(1);
1202:../../LUFA/Drivers/USB/LowLevel/Endpoint.h **** 
1203:../../LUFA/Drivers/USB/LowLevel/Endpoint.h **** 			/** EEPROM buffer source version of \ref Endpoint_Read_Control_Stream_LE().
1204:../../LUFA/Drivers/USB/LowLevel/Endpoint.h **** 			 *
1205:../../LUFA/Drivers/USB/LowLevel/Endpoint.h **** 			 *  \note This function automatically clears the control transfer's status stage. Do not manuall
1206:../../LUFA/Drivers/USB/LowLevel/Endpoint.h **** 			 *        to clear the status stage when using this routine in a control transaction.
1207:../../LUFA/Drivers/USB/LowLevel/Endpoint.h **** 			 *        \n\n
1208:../../LUFA/Drivers/USB/LowLevel/Endpoint.h **** 			 *
1209:../../LUFA/Drivers/USB/LowLevel/Endpoint.h **** 			 *  \note This routine should only be used on CONTROL type endpoints.
1210:../../LUFA/Drivers/USB/LowLevel/Endpoint.h **** 			 *
1211:../../LUFA/Drivers/USB/LowLevel/Endpoint.h **** 			 *  \warning Unlike the standard stream read/write commands, the control stream commands cannot 
1212:../../LUFA/Drivers/USB/LowLevel/Endpoint.h **** 			 *           together; i.e. the entire stream data must be read or written at the one time.
1213:../../LUFA/Drivers/USB/LowLevel/Endpoint.h **** 			 *
1214:../../LUFA/Drivers/USB/LowLevel/Endpoint.h **** 			 *  \ingroup Group_EndpointStreamRW
1215:../../LUFA/Drivers/USB/LowLevel/Endpoint.h **** 			 *
1216:../../LUFA/Drivers/USB/LowLevel/Endpoint.h **** 			 *  \param[out] Buffer  Pointer to the destination data buffer to write to.
1217:../../LUFA/Drivers/USB/LowLevel/Endpoint.h **** 			 *  \param[in]  Length  Number of bytes to send via the currently selected endpoint.
1218:../../LUFA/Drivers/USB/LowLevel/Endpoint.h **** 			 *
1219:../../LUFA/Drivers/USB/LowLevel/Endpoint.h **** 			 *  \return A value from the \ref Endpoint_ControlStream_RW_ErrorCodes_t enum.
1220:../../LUFA/Drivers/USB/LowLevel/Endpoint.h **** 			 */
1221:../../LUFA/Drivers/USB/LowLevel/Endpoint.h **** 			uint8_t Endpoint_Read_Control_EStream_LE(void* Buffer,
1222:../../LUFA/Drivers/USB/LowLevel/Endpoint.h **** 			                                         uint16_t Length) ATTR_NON_NULL_PTR_ARG(1);
1223:../../LUFA/Drivers/USB/LowLevel/Endpoint.h **** 
1224:../../LUFA/Drivers/USB/LowLevel/Endpoint.h **** 			/** Reads the given number of bytes from the CONTROL endpoint from the given buffer in big endia
1225:../../LUFA/Drivers/USB/LowLevel/Endpoint.h **** 			 *  discarding fully read packets from the host as needed. The device IN acknowledgement is not
1226:../../LUFA/Drivers/USB/LowLevel/Endpoint.h **** 			 *  automatically sent after success or failure states; the user is responsible for manually sen
1227:../../LUFA/Drivers/USB/LowLevel/Endpoint.h **** 			 *  setup IN to finalize the transfer via the \ref Endpoint_ClearIN() macro.
1228:../../LUFA/Drivers/USB/LowLevel/Endpoint.h **** 			 *
1229:../../LUFA/Drivers/USB/LowLevel/Endpoint.h **** 			 *  \note This function automatically clears the control transfer's status stage. Do not manuall
1230:../../LUFA/Drivers/USB/LowLevel/Endpoint.h **** 			 *        to clear the status stage when using this routine in a control transaction.
1231:../../LUFA/Drivers/USB/LowLevel/Endpoint.h **** 			 *        \n\n
1232:../../LUFA/Drivers/USB/LowLevel/Endpoint.h **** 			 *
1233:../../LUFA/Drivers/USB/LowLevel/Endpoint.h **** 			 *  \note This routine should only be used on CONTROL type endpoints.
1234:../../LUFA/Drivers/USB/LowLevel/Endpoint.h **** 			 *
1235:../../LUFA/Drivers/USB/LowLevel/Endpoint.h **** 			 *  \warning Unlike the standard stream read/write commands, the control stream commands cannot 
1236:../../LUFA/Drivers/USB/LowLevel/Endpoint.h **** 			 *           together; i.e. the entire stream data must be read or written at the one time.
1237:../../LUFA/Drivers/USB/LowLevel/Endpoint.h **** 			 *
1238:../../LUFA/Drivers/USB/LowLevel/Endpoint.h **** 			 *  \ingroup Group_EndpointStreamRW
1239:../../LUFA/Drivers/USB/LowLevel/Endpoint.h **** 			 *
1240:../../LUFA/Drivers/USB/LowLevel/Endpoint.h **** 			 *  \param[out] Buffer  Pointer to the destination data buffer to write to.
1241:../../LUFA/Drivers/USB/LowLevel/Endpoint.h **** 			 *  \param[in]  Length  Number of bytes to send via the currently selected endpoint.
1242:../../LUFA/Drivers/USB/LowLevel/Endpoint.h **** 			 *
1243:../../LUFA/Drivers/USB/LowLevel/Endpoint.h **** 			 *  \return A value from the \ref Endpoint_ControlStream_RW_ErrorCodes_t enum.
1244:../../LUFA/Drivers/USB/LowLevel/Endpoint.h **** 			 */
1245:../../LUFA/Drivers/USB/LowLevel/Endpoint.h **** 			uint8_t Endpoint_Read_Control_Stream_BE(void* Buffer,
1246:../../LUFA/Drivers/USB/LowLevel/Endpoint.h **** 			                                        uint16_t Length) ATTR_NON_NULL_PTR_ARG(1);
1247:../../LUFA/Drivers/USB/LowLevel/Endpoint.h **** 			
1248:../../LUFA/Drivers/USB/LowLevel/Endpoint.h **** 			/** EEPROM buffer source version of \ref Endpoint_Read_Control_Stream_BE().
1249:../../LUFA/Drivers/USB/LowLevel/Endpoint.h **** 			 *
1250:../../LUFA/Drivers/USB/LowLevel/Endpoint.h **** 			 *  \note This function automatically clears the control transfer's status stage. Do not manuall
1251:../../LUFA/Drivers/USB/LowLevel/Endpoint.h **** 			 *        to clear the status stage when using this routine in a control transaction.
1252:../../LUFA/Drivers/USB/LowLevel/Endpoint.h **** 			 *        \n\n
1253:../../LUFA/Drivers/USB/LowLevel/Endpoint.h **** 			 *
1254:../../LUFA/Drivers/USB/LowLevel/Endpoint.h **** 			 *  \note This routine should only be used on CONTROL type endpoints.
1255:../../LUFA/Drivers/USB/LowLevel/Endpoint.h **** 			 *
1256:../../LUFA/Drivers/USB/LowLevel/Endpoint.h **** 			 *  \warning Unlike the standard stream read/write commands, the control stream commands cannot 
1257:../../LUFA/Drivers/USB/LowLevel/Endpoint.h **** 			 *           together; i.e. the entire stream data must be read or written at the one time.
1258:../../LUFA/Drivers/USB/LowLevel/Endpoint.h **** 			 *
1259:../../LUFA/Drivers/USB/LowLevel/Endpoint.h **** 			 *  \ingroup Group_EndpointStreamRW
1260:../../LUFA/Drivers/USB/LowLevel/Endpoint.h **** 			 *
1261:../../LUFA/Drivers/USB/LowLevel/Endpoint.h **** 			 *  \param[out] Buffer  Pointer to the destination data buffer to write to.
1262:../../LUFA/Drivers/USB/LowLevel/Endpoint.h **** 			 *  \param[in]  Length  Number of bytes to send via the currently selected endpoint.
1263:../../LUFA/Drivers/USB/LowLevel/Endpoint.h **** 			 *
1264:../../LUFA/Drivers/USB/LowLevel/Endpoint.h **** 			 *  \return A value from the \ref Endpoint_ControlStream_RW_ErrorCodes_t enum.
1265:../../LUFA/Drivers/USB/LowLevel/Endpoint.h **** 			 */
1266:../../LUFA/Drivers/USB/LowLevel/Endpoint.h **** 			uint8_t Endpoint_Read_Control_EStream_BE(void* Buffer,
1267:../../LUFA/Drivers/USB/LowLevel/Endpoint.h **** 			                                         uint16_t Length) ATTR_NON_NULL_PTR_ARG(1);
1268:../../LUFA/Drivers/USB/LowLevel/Endpoint.h **** 
1269:../../LUFA/Drivers/USB/LowLevel/Endpoint.h **** 	/* Private Interface - For use in library only: */
1270:../../LUFA/Drivers/USB/LowLevel/Endpoint.h **** 	#if !defined(__DOXYGEN__)
1271:../../LUFA/Drivers/USB/LowLevel/Endpoint.h **** 		/* Macros: */
1272:../../LUFA/Drivers/USB/LowLevel/Endpoint.h **** 			#define _ENDPOINT_GET_MAXSIZE(n)               _ENDPOINT_GET_MAXSIZE2(ENDPOINT_DETAILS_EP ## n)
1273:../../LUFA/Drivers/USB/LowLevel/Endpoint.h **** 			#define _ENDPOINT_GET_MAXSIZE2(details)        _ENDPOINT_GET_MAXSIZE3(details)
1274:../../LUFA/Drivers/USB/LowLevel/Endpoint.h **** 			#define _ENDPOINT_GET_MAXSIZE3(maxsize, db)    maxsize
1275:../../LUFA/Drivers/USB/LowLevel/Endpoint.h **** 
1276:../../LUFA/Drivers/USB/LowLevel/Endpoint.h **** 			#define _ENDPOINT_GET_DOUBLEBANK(n)            _ENDPOINT_GET_DOUBLEBANK2(ENDPOINT_DETAILS_EP ## 
1277:../../LUFA/Drivers/USB/LowLevel/Endpoint.h **** 			#define _ENDPOINT_GET_DOUBLEBANK2(details)     _ENDPOINT_GET_DOUBLEBANK3(details)
1278:../../LUFA/Drivers/USB/LowLevel/Endpoint.h **** 			#define _ENDPOINT_GET_DOUBLEBANK3(maxsize, db) db
1279:../../LUFA/Drivers/USB/LowLevel/Endpoint.h **** 			
1280:../../LUFA/Drivers/USB/LowLevel/Endpoint.h **** 			#if defined(USB_SERIES_4_AVR) || defined(USB_SERIES_6_AVR) || defined(USB_SERIES_7_AVR)
1281:../../LUFA/Drivers/USB/LowLevel/Endpoint.h **** 				#define ENDPOINT_DETAILS_EP0               64,  true
1282:../../LUFA/Drivers/USB/LowLevel/Endpoint.h **** 				#define ENDPOINT_DETAILS_EP1               256, true
1283:../../LUFA/Drivers/USB/LowLevel/Endpoint.h **** 				#define ENDPOINT_DETAILS_EP2               64,  true
1284:../../LUFA/Drivers/USB/LowLevel/Endpoint.h **** 				#define ENDPOINT_DETAILS_EP3               64,  true
1285:../../LUFA/Drivers/USB/LowLevel/Endpoint.h **** 				#define ENDPOINT_DETAILS_EP4               64,  true
1286:../../LUFA/Drivers/USB/LowLevel/Endpoint.h **** 				#define ENDPOINT_DETAILS_EP5               64,  true
1287:../../LUFA/Drivers/USB/LowLevel/Endpoint.h **** 				#define ENDPOINT_DETAILS_EP6               64,  true
1288:../../LUFA/Drivers/USB/LowLevel/Endpoint.h **** 			#else
1289:../../LUFA/Drivers/USB/LowLevel/Endpoint.h **** 				#define ENDPOINT_DETAILS_EP0               64,  true
1290:../../LUFA/Drivers/USB/LowLevel/Endpoint.h **** 				#define ENDPOINT_DETAILS_EP1               64,  false
1291:../../LUFA/Drivers/USB/LowLevel/Endpoint.h **** 				#define ENDPOINT_DETAILS_EP2               64,  false
1292:../../LUFA/Drivers/USB/LowLevel/Endpoint.h **** 				#define ENDPOINT_DETAILS_EP3               64,  true
1293:../../LUFA/Drivers/USB/LowLevel/Endpoint.h **** 				#define ENDPOINT_DETAILS_EP4               64,  true			
1294:../../LUFA/Drivers/USB/LowLevel/Endpoint.h **** 			#endif
1295:../../LUFA/Drivers/USB/LowLevel/Endpoint.h **** 
1296:../../LUFA/Drivers/USB/LowLevel/Endpoint.h **** 			#define Endpoint_ConfigureEndpoint(Number, Type, Direction, Size, Banks)                        
1297:../../LUFA/Drivers/USB/LowLevel/Endpoint.h **** 			                     (__builtin_constant_p(Size) ? Endpoint_ConfigureEndpointStatic((Number),   
1298:../../LUFA/Drivers/USB/LowLevel/Endpoint.h **** 			                                                                                    (Type),     
1299:../../LUFA/Drivers/USB/LowLevel/Endpoint.h **** 			                                                                                    (Direction),
1300:../../LUFA/Drivers/USB/LowLevel/Endpoint.h **** 			                                                                                    Size, Banks)
1301:../../LUFA/Drivers/USB/LowLevel/Endpoint.h **** 			                                                   Endpoint_ConfigureEndpointDynamic((Number),  
1302:../../LUFA/Drivers/USB/LowLevel/Endpoint.h **** 			                                                                                     (Type),    
1303:../../LUFA/Drivers/USB/LowLevel/Endpoint.h **** 			                                                                                     (Direction)
1304:../../LUFA/Drivers/USB/LowLevel/Endpoint.h **** 			                                                                                     Size, Banks
1305:../../LUFA/Drivers/USB/LowLevel/Endpoint.h **** 
1306:../../LUFA/Drivers/USB/LowLevel/Endpoint.h **** 		/* Function Prototypes: */
1307:../../LUFA/Drivers/USB/LowLevel/Endpoint.h **** 			void    Endpoint_ClearEndpoints(void);
1308:../../LUFA/Drivers/USB/LowLevel/Endpoint.h **** 			uint8_t Endpoint_BytesToEPSizeMaskDynamic(const uint16_t Size);
1309:../../LUFA/Drivers/USB/LowLevel/Endpoint.h **** 			bool    Endpoint_ConfigureEndpoint_Prv(const uint8_t Number,
1310:../../LUFA/Drivers/USB/LowLevel/Endpoint.h **** 			                                       const uint8_t UECFG0XData,
1311:../../LUFA/Drivers/USB/LowLevel/Endpoint.h **** 			                                       const uint8_t UECFG1XData);			
1312:../../LUFA/Drivers/USB/LowLevel/Endpoint.h **** 
1313:../../LUFA/Drivers/USB/LowLevel/Endpoint.h **** 		/* Inline Functions: */
1314:../../LUFA/Drivers/USB/LowLevel/Endpoint.h **** 			static inline uint8_t Endpoint_BytesToEPSizeMask(const uint16_t Bytes) ATTR_WARN_UNUSED_RESULT A
1315:../../LUFA/Drivers/USB/LowLevel/Endpoint.h **** 			static inline uint8_t Endpoint_BytesToEPSizeMask(const uint16_t Bytes)
1316:../../LUFA/Drivers/USB/LowLevel/Endpoint.h **** 			{
1317:../../LUFA/Drivers/USB/LowLevel/Endpoint.h **** 				uint8_t  MaskVal    = 0;
1318:../../LUFA/Drivers/USB/LowLevel/Endpoint.h **** 				uint16_t CheckBytes = 8;
  28               		.loc 2 1318 0
  29 0002 28E0      		ldi r18,lo8(8)
  30 0004 30E0      		ldi r19,0
1317:../../LUFA/Drivers/USB/LowLevel/Endpoint.h **** 				uint16_t CheckBytes = 8;
  31               		.loc 2 1317 0
  32 0006 80E0      		ldi r24,0
  33               	.LVL2:
  34               	.L2:
1319:../../LUFA/Drivers/USB/LowLevel/Endpoint.h **** 				
1320:../../LUFA/Drivers/USB/LowLevel/Endpoint.h **** 				while (CheckBytes < Bytes)
  35               		.loc 2 1320 0
  36 0008 2417      		cp r18,r20
  37 000a 3507      		cpc r19,r21
  38 000c 00F0      		brlo .L3
  39               	.LVL3:
  40               	.LBE260:
  41               	.LBE259:
  45:../../LUFA/Drivers/USB/LowLevel/Endpoint.c **** 	return Endpoint_BytesToEPSizeMask(Size);
  46:../../LUFA/Drivers/USB/LowLevel/Endpoint.c **** }
  42               		.loc 1 46 0
  43 000e 8295      		swap r24
  44 0010 807F      		andi r24,lo8(-16)
  45               	/* epilogue start */
  46 0012 0895      		ret
  47               	.LVL4:
  48               	.L3:
  49               	.LBB262:
  50               	.LBB261:
1321:../../LUFA/Drivers/USB/LowLevel/Endpoint.h **** 				{
1322:../../LUFA/Drivers/USB/LowLevel/Endpoint.h **** 					MaskVal++;
  51               		.loc 2 1322 0
  52 0014 8F5F      		subi r24,lo8(-(1))
  53               	.LVL5:
1323:../../LUFA/Drivers/USB/LowLevel/Endpoint.h **** 					CheckBytes <<= 1;
  54               		.loc 2 1323 0
  55 0016 220F      		lsl r18
  56 0018 331F      		rol r19
  57               	.LVL6:
  58 001a 00C0      		rjmp .L2
  59               	.LBE261:
  60               	.LBE262:
  61               		.cfi_endproc
  62               	.LFE64:
  64               		.section	.text.Endpoint_ConfigureEndpoint_Prv,"ax",@progbits
  65               	.global	Endpoint_ConfigureEndpoint_Prv
  67               	Endpoint_ConfigureEndpoint_Prv:
  68               	.LFB65:
  47:../../LUFA/Drivers/USB/LowLevel/Endpoint.c **** 
  48:../../LUFA/Drivers/USB/LowLevel/Endpoint.c **** bool Endpoint_ConfigureEndpoint_Prv(const uint8_t Number,
  49:../../LUFA/Drivers/USB/LowLevel/Endpoint.c ****                                     const uint8_t UECFG0XData,
  50:../../LUFA/Drivers/USB/LowLevel/Endpoint.c ****                                     const uint8_t UECFG1XData)
  51:../../LUFA/Drivers/USB/LowLevel/Endpoint.c **** {
  69               		.loc 1 51 0
  70               		.cfi_startproc
  71               	.LVL7:
  72               	/* prologue: function */
  73               	/* frame size = 0 */
  74               	/* stack size = 0 */
  75               	.L__stack_usage = 0
  76               	.LBB263:
  77               	.LBB264:
 299:../../LUFA/Drivers/USB/LowLevel/Endpoint.h **** 				#endif			
  78               		.loc 2 299 0
  79 0000 8093 E900 		sts 233,r24
  80               	.LVL8:
  81               	.LBE264:
  82               	.LBE263:
  83               	.LBB265:
  84               	.LBB266:
 323:../../LUFA/Drivers/USB/LowLevel/Endpoint.h **** 			}
  85               		.loc 2 323 0
  86 0004 EBEE      		ldi r30,lo8(-21)
  87 0006 F0E0      		ldi r31,0
  88 0008 8081      		ld r24,Z
  89               	.LVL9:
  90 000a 8160      		ori r24,lo8(1)
  91 000c 8083      		st Z,r24
  92               	.LVL10:
  93               	.LBE266:
  94               	.LBE265:
  52:../../LUFA/Drivers/USB/LowLevel/Endpoint.c **** 	Endpoint_SelectEndpoint(Number);
  53:../../LUFA/Drivers/USB/LowLevel/Endpoint.c **** 	Endpoint_EnableEndpoint();
  54:../../LUFA/Drivers/USB/LowLevel/Endpoint.c **** 
  55:../../LUFA/Drivers/USB/LowLevel/Endpoint.c **** 	UECFG1X = 0;
  95               		.loc 1 55 0
  96 000e EDEE      		ldi r30,lo8(-19)
  97 0010 F0E0      		ldi r31,0
  98 0012 1082      		st Z,__zero_reg__
  56:../../LUFA/Drivers/USB/LowLevel/Endpoint.c **** 
  57:../../LUFA/Drivers/USB/LowLevel/Endpoint.c **** 	UECFG0X = UECFG0XData;
  99               		.loc 1 57 0
 100 0014 6093 EC00 		sts 236,r22
  58:../../LUFA/Drivers/USB/LowLevel/Endpoint.c **** 	UECFG1X = UECFG1XData;
 101               		.loc 1 58 0
 102 0018 4083      		st Z,r20
 103               	.LBB267:
 104               	.LBB268:
 368:../../LUFA/Drivers/USB/LowLevel/Endpoint.h **** 			}
 105               		.loc 2 368 0
 106 001a 8091 EE00 		lds r24,238
 107               	.LBE268:
 108               	.LBE267:
  59:../../LUFA/Drivers/USB/LowLevel/Endpoint.c **** 
  60:../../LUFA/Drivers/USB/LowLevel/Endpoint.c **** 	return Endpoint_IsConfigured();
  61:../../LUFA/Drivers/USB/LowLevel/Endpoint.c **** }
 109               		.loc 1 61 0
 110 001e 881F      		rol r24
 111 0020 8827      		clr r24
 112 0022 881F      		rol r24
 113               	/* epilogue start */
 114 0024 0895      		ret
 115               		.cfi_endproc
 116               	.LFE65:
 118               		.section	.text.Endpoint_ClearEndpoints,"ax",@progbits
 119               	.global	Endpoint_ClearEndpoints
 121               	Endpoint_ClearEndpoints:
 122               	.LFB66:
  62:../../LUFA/Drivers/USB/LowLevel/Endpoint.c **** 
  63:../../LUFA/Drivers/USB/LowLevel/Endpoint.c **** void Endpoint_ClearEndpoints(void)
  64:../../LUFA/Drivers/USB/LowLevel/Endpoint.c **** {
 123               		.loc 1 64 0
 124               		.cfi_startproc
 125               	/* prologue: function */
 126               	/* frame size = 0 */
 127               	/* stack size = 0 */
 128               	.L__stack_usage = 0
  65:../../LUFA/Drivers/USB/LowLevel/Endpoint.c **** 	UEINT = 0;
 129               		.loc 1 65 0
 130 0000 1092 F400 		sts 244,__zero_reg__
 131               	.LVL11:
 132               	.LBB269:
  66:../../LUFA/Drivers/USB/LowLevel/Endpoint.c **** 
  67:../../LUFA/Drivers/USB/LowLevel/Endpoint.c **** 	for (uint8_t EPNum = 0; EPNum < ENDPOINT_TOTAL_ENDPOINTS; EPNum++)
 133               		.loc 1 67 0
 134 0004 80E0      		ldi r24,0
 135               	.LVL12:
 136               	.L6:
 137               	.LBB270:
 138               	.LBB271:
 299:../../LUFA/Drivers/USB/LowLevel/Endpoint.h **** 				#endif			
 139               		.loc 2 299 0
 140 0006 8093 E900 		sts 233,r24
 141               	.LVL13:
 142               	.LBE271:
 143               	.LBE270:
  68:../../LUFA/Drivers/USB/LowLevel/Endpoint.c **** 	{
  69:../../LUFA/Drivers/USB/LowLevel/Endpoint.c **** 		Endpoint_SelectEndpoint(EPNum);	
  70:../../LUFA/Drivers/USB/LowLevel/Endpoint.c **** 		UEIENX  = 0;
 144               		.loc 1 70 0
 145 000a 1092 F000 		sts 240,__zero_reg__
  71:../../LUFA/Drivers/USB/LowLevel/Endpoint.c **** 		UEINTX  = 0;
 146               		.loc 1 71 0
 147 000e 1092 E800 		sts 232,__zero_reg__
  72:../../LUFA/Drivers/USB/LowLevel/Endpoint.c **** 		UECFG1X = 0;
 148               		.loc 1 72 0
 149 0012 1092 ED00 		sts 237,__zero_reg__
 150               	.LBB272:
 151               	.LBB273:
 332:../../LUFA/Drivers/USB/LowLevel/Endpoint.h **** 			}
 152               		.loc 2 332 0
 153 0016 9091 EB00 		lds r25,235
 154 001a 9E7F      		andi r25,lo8(-2)
 155 001c 9093 EB00 		sts 235,r25
 156               	.LBE273:
 157               	.LBE272:
  67:../../LUFA/Drivers/USB/LowLevel/Endpoint.c **** 	{
 158               		.loc 1 67 0
 159 0020 8F5F      		subi r24,lo8(-(1))
 160               	.LVL14:
 161 0022 8530      		cpi r24,lo8(5)
 162 0024 01F4      		brne .L6
 163               	/* epilogue start */
 164               	.LBE269:
  73:../../LUFA/Drivers/USB/LowLevel/Endpoint.c **** 		Endpoint_DisableEndpoint();
  74:../../LUFA/Drivers/USB/LowLevel/Endpoint.c **** 	}
  75:../../LUFA/Drivers/USB/LowLevel/Endpoint.c **** }
 165               		.loc 1 75 0
 166 0026 0895      		ret
 167               		.cfi_endproc
 168               	.LFE66:
 170               		.section	.text.Endpoint_ClearStatusStage,"ax",@progbits
 171               	.global	Endpoint_ClearStatusStage
 173               	Endpoint_ClearStatusStage:
 174               	.LFB67:
  76:../../LUFA/Drivers/USB/LowLevel/Endpoint.c **** 
  77:../../LUFA/Drivers/USB/LowLevel/Endpoint.c **** void Endpoint_ClearStatusStage(void)
  78:../../LUFA/Drivers/USB/LowLevel/Endpoint.c **** {
 175               		.loc 1 78 0
 176               		.cfi_startproc
 177               	/* prologue: function */
 178               	/* frame size = 0 */
 179               	/* stack size = 0 */
 180               	.L__stack_usage = 0
  79:../../LUFA/Drivers/USB/LowLevel/Endpoint.c **** 	if (USB_ControlRequest.bmRequestType & REQDIR_DEVICETOHOST)
 181               		.loc 1 79 0
 182 0000 8091 0000 		lds r24,USB_ControlRequest
 183 0004 87FF      		sbrs r24,7
 184 0006 00C0      		rjmp .L10
 185               	.L9:
 186               	.LBB274:
 187               	.LBB275:
 417:../../LUFA/Drivers/USB/LowLevel/Endpoint.h **** 			}
 188               		.loc 2 417 0
 189 0008 8091 E800 		lds r24,232
 190               	.LBE275:
 191               	.LBE274:
  80:../../LUFA/Drivers/USB/LowLevel/Endpoint.c **** 	{
  81:../../LUFA/Drivers/USB/LowLevel/Endpoint.c **** 		while (!(Endpoint_IsOUTReceived()))
 192               		.loc 1 81 0
 193 000c 82FF      		sbrs r24,2
 194 000e 00C0      		rjmp .L12
 195               	.LBB276:
 196               	.LBB277:
 469:../../LUFA/Drivers/USB/LowLevel/Endpoint.h **** 				#else
 197               		.loc 2 469 0
 198 0010 8091 E800 		lds r24,232
 199 0014 8B77      		andi r24,lo8(123)
 200               	.L21:
 201               	.LBE277:
 202               	.LBE276:
 203               	.LBB278:
 204               	.LBB279:
 454:../../LUFA/Drivers/USB/LowLevel/Endpoint.h **** 				#else
 205               		.loc 2 454 0
 206 0016 8093 E800 		sts 232,r24
 207 001a 00C0      		rjmp .L8
 208               	.L12:
 209               	.LBE279:
 210               	.LBE278:
  82:../../LUFA/Drivers/USB/LowLevel/Endpoint.c **** 		{
  83:../../LUFA/Drivers/USB/LowLevel/Endpoint.c **** 			if (USB_DeviceState == DEVICE_STATE_Unattached)
 211               		.loc 1 83 0
 212 001c 8EB3      		in r24,0x1e
 213 001e 8111      		cpse r24,__zero_reg__
 214 0020 00C0      		rjmp .L9
 215               	.L8:
 216               	/* epilogue start */
  84:../../LUFA/Drivers/USB/LowLevel/Endpoint.c **** 			  return;
  85:../../LUFA/Drivers/USB/LowLevel/Endpoint.c **** 		}
  86:../../LUFA/Drivers/USB/LowLevel/Endpoint.c **** 
  87:../../LUFA/Drivers/USB/LowLevel/Endpoint.c **** 		Endpoint_ClearOUT();
  88:../../LUFA/Drivers/USB/LowLevel/Endpoint.c **** 	}
  89:../../LUFA/Drivers/USB/LowLevel/Endpoint.c **** 	else
  90:../../LUFA/Drivers/USB/LowLevel/Endpoint.c **** 	{
  91:../../LUFA/Drivers/USB/LowLevel/Endpoint.c **** 		while (!(Endpoint_IsINReady()))
  92:../../LUFA/Drivers/USB/LowLevel/Endpoint.c **** 		{
  93:../../LUFA/Drivers/USB/LowLevel/Endpoint.c **** 			if (USB_DeviceState == DEVICE_STATE_Unattached)
  94:../../LUFA/Drivers/USB/LowLevel/Endpoint.c **** 			  return;
  95:../../LUFA/Drivers/USB/LowLevel/Endpoint.c **** 		}
  96:../../LUFA/Drivers/USB/LowLevel/Endpoint.c **** 		
  97:../../LUFA/Drivers/USB/LowLevel/Endpoint.c **** 		Endpoint_ClearIN();
  98:../../LUFA/Drivers/USB/LowLevel/Endpoint.c **** 	}
  99:../../LUFA/Drivers/USB/LowLevel/Endpoint.c **** }
 217               		.loc 1 99 0
 218 0022 0895      		ret
 219               	.L13:
  93:../../LUFA/Drivers/USB/LowLevel/Endpoint.c **** 			  return;
 220               		.loc 1 93 0
 221 0024 8EB3      		in r24,0x1e
 222 0026 8823      		tst r24
 223 0028 01F0      		breq .L8
 224               	.L10:
 225               	.LBB281:
 226               	.LBB282:
 405:../../LUFA/Drivers/USB/LowLevel/Endpoint.h **** 			}
 227               		.loc 2 405 0
 228 002a 8091 E800 		lds r24,232
 229               	.LBE282:
 230               	.LBE281:
  91:../../LUFA/Drivers/USB/LowLevel/Endpoint.c **** 		{
 231               		.loc 1 91 0
 232 002e 80FF      		sbrs r24,0
 233 0030 00C0      		rjmp .L13
 234               	.LBB283:
 235               	.LBB280:
 454:../../LUFA/Drivers/USB/LowLevel/Endpoint.h **** 				#else
 236               		.loc 2 454 0
 237 0032 8091 E800 		lds r24,232
 238 0036 8E77      		andi r24,lo8(126)
 239 0038 00C0      		rjmp .L21
 240               	.LBE280:
 241               	.LBE283:
 242               		.cfi_endproc
 243               	.LFE67:
 245               		.section	.text.Endpoint_WaitUntilReady,"ax",@progbits
 246               	.global	Endpoint_WaitUntilReady
 248               	Endpoint_WaitUntilReady:
 249               	.LFB68:
 100:../../LUFA/Drivers/USB/LowLevel/Endpoint.c **** 
 101:../../LUFA/Drivers/USB/LowLevel/Endpoint.c **** #if !defined(CONTROL_ONLY_DEVICE)
 102:../../LUFA/Drivers/USB/LowLevel/Endpoint.c **** uint8_t Endpoint_WaitUntilReady(void)
 103:../../LUFA/Drivers/USB/LowLevel/Endpoint.c **** {
 250               		.loc 1 103 0
 251               		.cfi_startproc
 252               	/* prologue: function */
 253               	/* frame size = 0 */
 254               	/* stack size = 0 */
 255               	.L__stack_usage = 0
 256               	.LVL15:
 257               		.loc 1 103 0
 258 0000 85E6      		ldi r24,lo8(101)
 259               	.LVL16:
 260               	.L26:
 261               	.LBB284:
 262               	.LBB285:
 528:../../LUFA/Drivers/USB/LowLevel/Endpoint.h **** 			}
 263               		.loc 2 528 0
 264 0002 9091 EC00 		lds r25,236
 265               	.LBE285:
 266               	.LBE284:
 104:../../LUFA/Drivers/USB/LowLevel/Endpoint.c **** 	#if (USB_STREAM_TIMEOUT_MS < 0xFF)
 105:../../LUFA/Drivers/USB/LowLevel/Endpoint.c **** 	uint8_t  TimeoutMSRem = USB_STREAM_TIMEOUT_MS;	
 106:../../LUFA/Drivers/USB/LowLevel/Endpoint.c **** 	#else
 107:../../LUFA/Drivers/USB/LowLevel/Endpoint.c **** 	uint16_t TimeoutMSRem = USB_STREAM_TIMEOUT_MS;
 108:../../LUFA/Drivers/USB/LowLevel/Endpoint.c **** 	#endif
 109:../../LUFA/Drivers/USB/LowLevel/Endpoint.c **** 
 110:../../LUFA/Drivers/USB/LowLevel/Endpoint.c **** 	for (;;)
 111:../../LUFA/Drivers/USB/LowLevel/Endpoint.c **** 	{
 112:../../LUFA/Drivers/USB/LowLevel/Endpoint.c **** 		if (Endpoint_GetEndpointDirection() == ENDPOINT_DIR_IN)
 267               		.loc 1 112 0
 268 0006 90FF      		sbrs r25,0
 269 0008 00C0      		rjmp .L23
 270               	.LBB286:
 271               	.LBB287:
 405:../../LUFA/Drivers/USB/LowLevel/Endpoint.h **** 			}
 272               		.loc 2 405 0
 273 000a 9091 E800 		lds r25,232
 274               	.LBE287:
 275               	.LBE286:
 113:../../LUFA/Drivers/USB/LowLevel/Endpoint.c **** 		{
 114:../../LUFA/Drivers/USB/LowLevel/Endpoint.c **** 			if (Endpoint_IsINReady())
 276               		.loc 1 114 0
 277 000e 90FF      		sbrs r25,0
 278 0010 00C0      		rjmp .L25
 279               	.L29:
 115:../../LUFA/Drivers/USB/LowLevel/Endpoint.c **** 			  return ENDPOINT_READYWAIT_NoError;
 280               		.loc 1 115 0
 281 0012 80E0      		ldi r24,0
 282               	.LVL17:
 283 0014 0895      		ret
 284               	.LVL18:
 285               	.L23:
 286               	.LBB288:
 287               	.LBB289:
 417:../../LUFA/Drivers/USB/LowLevel/Endpoint.h **** 			}
 288               		.loc 2 417 0
 289 0016 9091 E800 		lds r25,232
 290               	.LBE289:
 291               	.LBE288:
 116:../../LUFA/Drivers/USB/LowLevel/Endpoint.c **** 		}
 117:../../LUFA/Drivers/USB/LowLevel/Endpoint.c **** 		else
 118:../../LUFA/Drivers/USB/LowLevel/Endpoint.c **** 		{
 119:../../LUFA/Drivers/USB/LowLevel/Endpoint.c **** 			if (Endpoint_IsOUTReceived())
 292               		.loc 1 119 0
 293 001a 92FD      		sbrc r25,2
 294 001c 00C0      		rjmp .L29
 295               	.L25:
 120:../../LUFA/Drivers/USB/LowLevel/Endpoint.c **** 			  return ENDPOINT_READYWAIT_NoError;
 121:../../LUFA/Drivers/USB/LowLevel/Endpoint.c **** 		}
 122:../../LUFA/Drivers/USB/LowLevel/Endpoint.c **** 		
 123:../../LUFA/Drivers/USB/LowLevel/Endpoint.c **** 		if (USB_DeviceState == DEVICE_STATE_Unattached)
 296               		.loc 1 123 0
 297 001e 9EB3      		in r25,0x1e
 298 0020 9923      		tst r25
 299 0022 01F0      		breq .L30
 124:../../LUFA/Drivers/USB/LowLevel/Endpoint.c **** 		  return ENDPOINT_READYWAIT_DeviceDisconnected;
 125:../../LUFA/Drivers/USB/LowLevel/Endpoint.c **** 		else if (USB_DeviceState == DEVICE_STATE_Suspended)
 300               		.loc 1 125 0
 301 0024 9EB3      		in r25,0x1e
 302 0026 9530      		cpi r25,lo8(5)
 303 0028 01F0      		breq .L31
 304               	.LBB290:
 305               	.LBB291:
 511:../../LUFA/Drivers/USB/LowLevel/Endpoint.h **** 			}
 306               		.loc 2 511 0
 307 002a 9091 EB00 		lds r25,235
 308               	.LBE291:
 309               	.LBE290:
 126:../../LUFA/Drivers/USB/LowLevel/Endpoint.c **** 		  return ENDPOINT_READYWAIT_BusSuspended;
 127:../../LUFA/Drivers/USB/LowLevel/Endpoint.c **** 		else if (Endpoint_IsStalled())
 310               		.loc 1 127 0
 311 002e 95FD      		sbrc r25,5
 312 0030 00C0      		rjmp .L32
 128:../../LUFA/Drivers/USB/LowLevel/Endpoint.c **** 		  return ENDPOINT_READYWAIT_EndpointStalled;
 129:../../LUFA/Drivers/USB/LowLevel/Endpoint.c **** 			  
 130:../../LUFA/Drivers/USB/LowLevel/Endpoint.c **** 		if (USB_INT_HasOccurred(USB_INT_SOFI))
 313               		.loc 1 130 0
 314 0032 9091 E100 		lds r25,225
 315 0036 92FF      		sbrs r25,2
 316 0038 00C0      		rjmp .L26
 131:../../LUFA/Drivers/USB/LowLevel/Endpoint.c **** 		{
 132:../../LUFA/Drivers/USB/LowLevel/Endpoint.c **** 			USB_INT_Clear(USB_INT_SOFI);
 317               		.loc 1 132 0
 318 003a 9091 E100 		lds r25,225
 319 003e 9B7F      		andi r25,lo8(-5)
 320 0040 9093 E100 		sts 225,r25
 321               	.LVL19:
 322 0044 8150      		subi r24,lo8(-(-1))
 323               	.LVL20:
 133:../../LUFA/Drivers/USB/LowLevel/Endpoint.c **** 
 134:../../LUFA/Drivers/USB/LowLevel/Endpoint.c **** 			if (!(TimeoutMSRem--))
 324               		.loc 1 134 0
 325 0046 01F4      		brne .L26
 135:../../LUFA/Drivers/USB/LowLevel/Endpoint.c **** 			  return ENDPOINT_READYWAIT_Timeout;
 326               		.loc 1 135 0
 327 0048 84E0      		ldi r24,lo8(4)
 328               	.LVL21:
 329 004a 0895      		ret
 330               	.LVL22:
 331               	.L30:
 124:../../LUFA/Drivers/USB/LowLevel/Endpoint.c **** 		else if (USB_DeviceState == DEVICE_STATE_Suspended)
 332               		.loc 1 124 0
 333 004c 82E0      		ldi r24,lo8(2)
 334               	.LVL23:
 335 004e 0895      		ret
 336               	.LVL24:
 337               	.L31:
 126:../../LUFA/Drivers/USB/LowLevel/Endpoint.c **** 		else if (Endpoint_IsStalled())
 338               		.loc 1 126 0
 339 0050 83E0      		ldi r24,lo8(3)
 340               	.LVL25:
 341 0052 0895      		ret
 342               	.LVL26:
 343               	.L32:
 128:../../LUFA/Drivers/USB/LowLevel/Endpoint.c **** 			  
 344               		.loc 1 128 0
 345 0054 81E0      		ldi r24,lo8(1)
 346               	.LVL27:
 347               	/* epilogue start */
 136:../../LUFA/Drivers/USB/LowLevel/Endpoint.c **** 		}
 137:../../LUFA/Drivers/USB/LowLevel/Endpoint.c **** 	}
 138:../../LUFA/Drivers/USB/LowLevel/Endpoint.c **** }
 348               		.loc 1 138 0
 349 0056 0895      		ret
 350               		.cfi_endproc
 351               	.LFE68:
 353               		.section	.text.Endpoint_Discard_Stream,"ax",@progbits
 354               	.global	Endpoint_Discard_Stream
 356               	Endpoint_Discard_Stream:
 357               	.LFB69:
 139:../../LUFA/Drivers/USB/LowLevel/Endpoint.c **** 
 140:../../LUFA/Drivers/USB/LowLevel/Endpoint.c **** uint8_t Endpoint_Discard_Stream(uint16_t Length
 141:../../LUFA/Drivers/USB/LowLevel/Endpoint.c **** #if !defined(NO_STREAM_CALLBACKS)
 142:../../LUFA/Drivers/USB/LowLevel/Endpoint.c ****                                 , StreamCallbackPtr_t Callback
 143:../../LUFA/Drivers/USB/LowLevel/Endpoint.c **** #endif
 144:../../LUFA/Drivers/USB/LowLevel/Endpoint.c ****                                 )
 145:../../LUFA/Drivers/USB/LowLevel/Endpoint.c **** {
 358               		.loc 1 145 0
 359               		.cfi_startproc
 360               	.LVL28:
 361 0000 EF92      		push r14
 362               	.LCFI0:
 363               		.cfi_def_cfa_offset 3
 364               		.cfi_offset 14, -2
 365 0002 FF92      		push r15
 366               	.LCFI1:
 367               		.cfi_def_cfa_offset 4
 368               		.cfi_offset 15, -3
 369 0004 0F93      		push r16
 370               	.LCFI2:
 371               		.cfi_def_cfa_offset 5
 372               		.cfi_offset 16, -4
 373 0006 1F93      		push r17
 374               	.LCFI3:
 375               		.cfi_def_cfa_offset 6
 376               		.cfi_offset 17, -5
 377 0008 CF93      		push r28
 378               	.LCFI4:
 379               		.cfi_def_cfa_offset 7
 380               		.cfi_offset 28, -6
 381               	/* prologue: function */
 382               	/* frame size = 0 */
 383               	/* stack size = 5 */
 384               	.L__stack_usage = 5
 385 000a 8C01      		movw r16,r24
 386 000c 7B01      		movw r14,r22
 146:../../LUFA/Drivers/USB/LowLevel/Endpoint.c **** 	uint8_t  ErrorCode;
 147:../../LUFA/Drivers/USB/LowLevel/Endpoint.c **** 	
 148:../../LUFA/Drivers/USB/LowLevel/Endpoint.c **** 	if ((ErrorCode = Endpoint_WaitUntilReady()))
 387               		.loc 1 148 0
 388 000e 0E94 0000 		call Endpoint_WaitUntilReady
 389               	.LVL29:
 390 0012 C82F      		mov r28,r24
 391               	.LVL30:
 392 0014 8823      		tst r24
 393 0016 01F0      		breq .L38
 394               	.LVL31:
 395               	.L36:
 149:../../LUFA/Drivers/USB/LowLevel/Endpoint.c **** 	  return ErrorCode;
 150:../../LUFA/Drivers/USB/LowLevel/Endpoint.c **** 
 151:../../LUFA/Drivers/USB/LowLevel/Endpoint.c **** 	#if defined(FAST_STREAM_TRANSFERS)
 152:../../LUFA/Drivers/USB/LowLevel/Endpoint.c **** 	uint8_t BytesRemToAlignment = (Endpoint_BytesInEndpoint() & 0x07);
 153:../../LUFA/Drivers/USB/LowLevel/Endpoint.c **** 
 154:../../LUFA/Drivers/USB/LowLevel/Endpoint.c **** 	if (Length >= 8)
 155:../../LUFA/Drivers/USB/LowLevel/Endpoint.c **** 	{
 156:../../LUFA/Drivers/USB/LowLevel/Endpoint.c **** 		Length -= BytesRemToAlignment;
 157:../../LUFA/Drivers/USB/LowLevel/Endpoint.c **** 
 158:../../LUFA/Drivers/USB/LowLevel/Endpoint.c **** 		switch (BytesRemToAlignment)
 159:../../LUFA/Drivers/USB/LowLevel/Endpoint.c **** 		{
 160:../../LUFA/Drivers/USB/LowLevel/Endpoint.c **** 			default:
 161:../../LUFA/Drivers/USB/LowLevel/Endpoint.c **** 				do
 162:../../LUFA/Drivers/USB/LowLevel/Endpoint.c **** 				{
 163:../../LUFA/Drivers/USB/LowLevel/Endpoint.c **** 					if (!(Endpoint_IsReadWriteAllowed()))
 164:../../LUFA/Drivers/USB/LowLevel/Endpoint.c **** 					{
 165:../../LUFA/Drivers/USB/LowLevel/Endpoint.c **** 						Endpoint_ClearOUT();
 166:../../LUFA/Drivers/USB/LowLevel/Endpoint.c **** 
 167:../../LUFA/Drivers/USB/LowLevel/Endpoint.c **** 						#if !defined(NO_STREAM_CALLBACKS)
 168:../../LUFA/Drivers/USB/LowLevel/Endpoint.c **** 						if ((Callback != NULL) && (Callback() == STREAMCALLBACK_Abort))
 169:../../LUFA/Drivers/USB/LowLevel/Endpoint.c **** 						  return ENDPOINT_RWSTREAM_CallbackAborted;
 170:../../LUFA/Drivers/USB/LowLevel/Endpoint.c **** 						#endif
 171:../../LUFA/Drivers/USB/LowLevel/Endpoint.c **** 
 172:../../LUFA/Drivers/USB/LowLevel/Endpoint.c **** 						if ((ErrorCode = Endpoint_WaitUntilReady()))
 173:../../LUFA/Drivers/USB/LowLevel/Endpoint.c **** 						  return ErrorCode;
 174:../../LUFA/Drivers/USB/LowLevel/Endpoint.c **** 					}
 175:../../LUFA/Drivers/USB/LowLevel/Endpoint.c **** 
 176:../../LUFA/Drivers/USB/LowLevel/Endpoint.c **** 					Length -= 8;
 177:../../LUFA/Drivers/USB/LowLevel/Endpoint.c **** 					
 178:../../LUFA/Drivers/USB/LowLevel/Endpoint.c **** 					Endpoint_Discard_Byte();
 179:../../LUFA/Drivers/USB/LowLevel/Endpoint.c **** 			case 7: Endpoint_Discard_Byte();
 180:../../LUFA/Drivers/USB/LowLevel/Endpoint.c **** 			case 6: Endpoint_Discard_Byte();
 181:../../LUFA/Drivers/USB/LowLevel/Endpoint.c **** 			case 5: Endpoint_Discard_Byte();
 182:../../LUFA/Drivers/USB/LowLevel/Endpoint.c **** 			case 4: Endpoint_Discard_Byte();
 183:../../LUFA/Drivers/USB/LowLevel/Endpoint.c **** 			case 3: Endpoint_Discard_Byte();
 184:../../LUFA/Drivers/USB/LowLevel/Endpoint.c **** 			case 2: Endpoint_Discard_Byte();
 185:../../LUFA/Drivers/USB/LowLevel/Endpoint.c **** 			case 1:	Endpoint_Discard_Byte();
 186:../../LUFA/Drivers/USB/LowLevel/Endpoint.c **** 				} while (Length >= 8);	
 187:../../LUFA/Drivers/USB/LowLevel/Endpoint.c **** 		}
 188:../../LUFA/Drivers/USB/LowLevel/Endpoint.c **** 	}
 189:../../LUFA/Drivers/USB/LowLevel/Endpoint.c **** 	#endif
 190:../../LUFA/Drivers/USB/LowLevel/Endpoint.c **** 
 191:../../LUFA/Drivers/USB/LowLevel/Endpoint.c **** 	while (Length)
 192:../../LUFA/Drivers/USB/LowLevel/Endpoint.c **** 	{
 193:../../LUFA/Drivers/USB/LowLevel/Endpoint.c **** 		if (!(Endpoint_IsReadWriteAllowed()))
 194:../../LUFA/Drivers/USB/LowLevel/Endpoint.c **** 		{
 195:../../LUFA/Drivers/USB/LowLevel/Endpoint.c **** 			Endpoint_ClearOUT();
 196:../../LUFA/Drivers/USB/LowLevel/Endpoint.c **** 
 197:../../LUFA/Drivers/USB/LowLevel/Endpoint.c **** 			#if !defined(NO_STREAM_CALLBACKS)
 198:../../LUFA/Drivers/USB/LowLevel/Endpoint.c **** 			if ((Callback != NULL) && (Callback() == STREAMCALLBACK_Abort))
 199:../../LUFA/Drivers/USB/LowLevel/Endpoint.c **** 			  return ENDPOINT_RWSTREAM_CallbackAborted;
 200:../../LUFA/Drivers/USB/LowLevel/Endpoint.c **** 			#endif
 201:../../LUFA/Drivers/USB/LowLevel/Endpoint.c **** 
 202:../../LUFA/Drivers/USB/LowLevel/Endpoint.c **** 			if ((ErrorCode = Endpoint_WaitUntilReady()))
 203:../../LUFA/Drivers/USB/LowLevel/Endpoint.c **** 			  return ErrorCode;
 204:../../LUFA/Drivers/USB/LowLevel/Endpoint.c **** 		}
 205:../../LUFA/Drivers/USB/LowLevel/Endpoint.c **** 		else
 206:../../LUFA/Drivers/USB/LowLevel/Endpoint.c **** 		{
 207:../../LUFA/Drivers/USB/LowLevel/Endpoint.c **** 			Endpoint_Discard_Byte();
 208:../../LUFA/Drivers/USB/LowLevel/Endpoint.c **** 			Length--;
 209:../../LUFA/Drivers/USB/LowLevel/Endpoint.c **** 		}
 210:../../LUFA/Drivers/USB/LowLevel/Endpoint.c **** 	}
 211:../../LUFA/Drivers/USB/LowLevel/Endpoint.c **** 	
 212:../../LUFA/Drivers/USB/LowLevel/Endpoint.c **** 	return ENDPOINT_RWSTREAM_NoError;
 213:../../LUFA/Drivers/USB/LowLevel/Endpoint.c **** }
 396               		.loc 1 213 0
 397 0018 8C2F      		mov r24,r28
 398               	/* epilogue start */
 399 001a CF91      		pop r28
 400 001c 1F91      		pop r17
 401 001e 0F91      		pop r16
 402               	.LVL32:
 403 0020 FF90      		pop r15
 404 0022 EF90      		pop r14
 405               	.LVL33:
 406 0024 0895      		ret
 407               	.LVL34:
 408               	.L40:
 198:../../LUFA/Drivers/USB/LowLevel/Endpoint.c **** 			  return ENDPOINT_RWSTREAM_CallbackAborted;
 409               		.loc 1 198 0 discriminator 1
 410 0026 F701      		movw r30,r14
 411 0028 0995      		icall
 412               	.LVL35:
 413 002a 8130      		cpi r24,lo8(1)
 414 002c 01F4      		brne .L42
 199:../../LUFA/Drivers/USB/LowLevel/Endpoint.c **** 			#endif
 415               		.loc 1 199 0
 416 002e C5E0      		ldi r28,lo8(5)
 417 0030 00C0      		rjmp .L36
 418               	.L39:
 419               	.LBB292:
 420               	.LBB293:
 574:../../LUFA/Drivers/USB/LowLevel/Endpoint.h **** 			}
 421               		.loc 2 574 0
 422 0032 8091 F100 		lds r24,241
 423               	.LBE293:
 424               	.LBE292:
 208:../../LUFA/Drivers/USB/LowLevel/Endpoint.c **** 		}
 425               		.loc 1 208 0
 426 0036 0150      		subi r16,1
 427 0038 1109      		sbc r17,__zero_reg__
 428               	.LVL36:
 429               	.L38:
 191:../../LUFA/Drivers/USB/LowLevel/Endpoint.c **** 	{
 430               		.loc 1 191 0
 431 003a 0115      		cp r16,__zero_reg__
 432 003c 1105      		cpc r17,__zero_reg__
 433 003e 01F0      		breq .L36
 434               	.LBB294:
 435               	.LBB295:
 358:../../LUFA/Drivers/USB/LowLevel/Endpoint.h **** 			}
 436               		.loc 2 358 0
 437 0040 8091 E800 		lds r24,232
 438               	.LBE295:
 439               	.LBE294:
 193:../../LUFA/Drivers/USB/LowLevel/Endpoint.c **** 		{
 440               		.loc 1 193 0
 441 0044 85FD      		sbrc r24,5
 442 0046 00C0      		rjmp .L39
 443               	.LBB296:
 444               	.LBB297:
 469:../../LUFA/Drivers/USB/LowLevel/Endpoint.h **** 				#else
 445               		.loc 2 469 0
 446 0048 8091 E800 		lds r24,232
 447 004c 8B77      		andi r24,lo8(123)
 448 004e 8093 E800 		sts 232,r24
 449               	.LBE297:
 450               	.LBE296:
 198:../../LUFA/Drivers/USB/LowLevel/Endpoint.c **** 			  return ENDPOINT_RWSTREAM_CallbackAborted;
 451               		.loc 1 198 0
 452 0052 E114      		cp r14,__zero_reg__
 453 0054 F104      		cpc r15,__zero_reg__
 454 0056 01F4      		brne .L40
 455               	.L42:
 202:../../LUFA/Drivers/USB/LowLevel/Endpoint.c **** 			  return ErrorCode;
 456               		.loc 1 202 0
 457 0058 0E94 0000 		call Endpoint_WaitUntilReady
 458               	.LVL37:
 459 005c 8823      		tst r24
 460 005e 01F0      		breq .L38
 461 0060 C82F      		mov r28,r24
 462 0062 00C0      		rjmp .L36
 463               		.cfi_endproc
 464               	.LFE69:
 466               		.section	.text.Endpoint_Write_Stream_LE,"ax",@progbits
 467               	.global	Endpoint_Write_Stream_LE
 469               	Endpoint_Write_Stream_LE:
 470               	.LFB70:
 471               		.file 3 "../../LUFA/Drivers/USB/LowLevel/Template/Template_Endpoint_RW.c"
   1:../../LUFA/Drivers/USB/LowLevel/Template/Template_Endpoint_RW.c **** uint8_t TEMPLATE_FUNC_NAME (TEMPLATE_BUFFER_TYPE Buffer,
   2:../../LUFA/Drivers/USB/LowLevel/Template/Template_Endpoint_RW.c ****                             uint16_t Length
   3:../../LUFA/Drivers/USB/LowLevel/Template/Template_Endpoint_RW.c ****                             __CALLBACK_PARAM)
   4:../../LUFA/Drivers/USB/LowLevel/Template/Template_Endpoint_RW.c **** {
 472               		.loc 3 4 0
 473               		.cfi_startproc
 474               	.LVL38:
 475 0000 CF92      		push r12
 476               	.LCFI5:
 477               		.cfi_def_cfa_offset 3
 478               		.cfi_offset 12, -2
 479 0002 DF92      		push r13
 480               	.LCFI6:
 481               		.cfi_def_cfa_offset 4
 482               		.cfi_offset 13, -3
 483 0004 EF92      		push r14
 484               	.LCFI7:
 485               		.cfi_def_cfa_offset 5
 486               		.cfi_offset 14, -4
 487 0006 FF92      		push r15
 488               	.LCFI8:
 489               		.cfi_def_cfa_offset 6
 490               		.cfi_offset 15, -5
 491 0008 0F93      		push r16
 492               	.LCFI9:
 493               		.cfi_def_cfa_offset 7
 494               		.cfi_offset 16, -6
 495 000a 1F93      		push r17
 496               	.LCFI10:
 497               		.cfi_def_cfa_offset 8
 498               		.cfi_offset 17, -7
 499 000c CF93      		push r28
 500               	.LCFI11:
 501               		.cfi_def_cfa_offset 9
 502               		.cfi_offset 28, -8
 503               	/* prologue: function */
 504               	/* frame size = 0 */
 505               	/* stack size = 7 */
 506               	.L__stack_usage = 7
 507 000e 7C01      		movw r14,r24
 508 0010 8B01      		movw r16,r22
 509 0012 6A01      		movw r12,r20
 510               	.LVL39:
   5:../../LUFA/Drivers/USB/LowLevel/Template/Template_Endpoint_RW.c **** 	uint8_t* DataStream = ((uint8_t*)Buffer + TEMPLATE_BUFFER_OFFSET(Length));
   6:../../LUFA/Drivers/USB/LowLevel/Template/Template_Endpoint_RW.c **** 	uint8_t  ErrorCode;
   7:../../LUFA/Drivers/USB/LowLevel/Template/Template_Endpoint_RW.c **** 	
   8:../../LUFA/Drivers/USB/LowLevel/Template/Template_Endpoint_RW.c **** 	if ((ErrorCode = Endpoint_WaitUntilReady()))
 511               		.loc 3 8 0
 512 0014 0E94 0000 		call Endpoint_WaitUntilReady
 513               	.LVL40:
 514 0018 C82F      		mov r28,r24
 515               	.LVL41:
 516 001a 8823      		tst r24
 517 001c 01F0      		breq .L48
 518               	.LVL42:
 519               	.L46:
   9:../../LUFA/Drivers/USB/LowLevel/Template/Template_Endpoint_RW.c **** 	  return ErrorCode;
  10:../../LUFA/Drivers/USB/LowLevel/Template/Template_Endpoint_RW.c **** 
  11:../../LUFA/Drivers/USB/LowLevel/Template/Template_Endpoint_RW.c **** 	#if defined(FAST_STREAM_TRANSFERS)
  12:../../LUFA/Drivers/USB/LowLevel/Template/Template_Endpoint_RW.c **** 	uint8_t BytesRemToAlignment = (Endpoint_BytesInEndpoint() & 0x07);
  13:../../LUFA/Drivers/USB/LowLevel/Template/Template_Endpoint_RW.c **** 
  14:../../LUFA/Drivers/USB/LowLevel/Template/Template_Endpoint_RW.c **** 	if (Length >= 8)
  15:../../LUFA/Drivers/USB/LowLevel/Template/Template_Endpoint_RW.c **** 	{
  16:../../LUFA/Drivers/USB/LowLevel/Template/Template_Endpoint_RW.c **** 		Length -= BytesRemToAlignment;
  17:../../LUFA/Drivers/USB/LowLevel/Template/Template_Endpoint_RW.c **** 
  18:../../LUFA/Drivers/USB/LowLevel/Template/Template_Endpoint_RW.c **** 		switch (BytesRemToAlignment)
  19:../../LUFA/Drivers/USB/LowLevel/Template/Template_Endpoint_RW.c **** 		{
  20:../../LUFA/Drivers/USB/LowLevel/Template/Template_Endpoint_RW.c **** 			default:
  21:../../LUFA/Drivers/USB/LowLevel/Template/Template_Endpoint_RW.c **** 				do
  22:../../LUFA/Drivers/USB/LowLevel/Template/Template_Endpoint_RW.c **** 				{
  23:../../LUFA/Drivers/USB/LowLevel/Template/Template_Endpoint_RW.c **** 					if (!(Endpoint_IsReadWriteAllowed()))
  24:../../LUFA/Drivers/USB/LowLevel/Template/Template_Endpoint_RW.c **** 					{
  25:../../LUFA/Drivers/USB/LowLevel/Template/Template_Endpoint_RW.c **** 						TEMPLATE_CLEAR_ENDPOINT();
  26:../../LUFA/Drivers/USB/LowLevel/Template/Template_Endpoint_RW.c **** 
  27:../../LUFA/Drivers/USB/LowLevel/Template/Template_Endpoint_RW.c **** 						#if !defined(NO_STREAM_CALLBACKS)
  28:../../LUFA/Drivers/USB/LowLevel/Template/Template_Endpoint_RW.c **** 						if ((Callback != NULL) && (Callback() == STREAMCALLBACK_Abort))
  29:../../LUFA/Drivers/USB/LowLevel/Template/Template_Endpoint_RW.c **** 						  return ENDPOINT_RWSTREAM_CallbackAborted;
  30:../../LUFA/Drivers/USB/LowLevel/Template/Template_Endpoint_RW.c **** 						#endif
  31:../../LUFA/Drivers/USB/LowLevel/Template/Template_Endpoint_RW.c **** 
  32:../../LUFA/Drivers/USB/LowLevel/Template/Template_Endpoint_RW.c **** 						if ((ErrorCode = Endpoint_WaitUntilReady()))
  33:../../LUFA/Drivers/USB/LowLevel/Template/Template_Endpoint_RW.c **** 						  return ErrorCode;
  34:../../LUFA/Drivers/USB/LowLevel/Template/Template_Endpoint_RW.c **** 					}
  35:../../LUFA/Drivers/USB/LowLevel/Template/Template_Endpoint_RW.c **** 
  36:../../LUFA/Drivers/USB/LowLevel/Template/Template_Endpoint_RW.c **** 					Length -= 8;
  37:../../LUFA/Drivers/USB/LowLevel/Template/Template_Endpoint_RW.c **** 					
  38:../../LUFA/Drivers/USB/LowLevel/Template/Template_Endpoint_RW.c **** 					TEMPLATE_TRANSFER_BYTE(DataStream);
  39:../../LUFA/Drivers/USB/LowLevel/Template/Template_Endpoint_RW.c **** 			case 7: TEMPLATE_TRANSFER_BYTE(DataStream);
  40:../../LUFA/Drivers/USB/LowLevel/Template/Template_Endpoint_RW.c **** 			case 6: TEMPLATE_TRANSFER_BYTE(DataStream);
  41:../../LUFA/Drivers/USB/LowLevel/Template/Template_Endpoint_RW.c **** 			case 5: TEMPLATE_TRANSFER_BYTE(DataStream);
  42:../../LUFA/Drivers/USB/LowLevel/Template/Template_Endpoint_RW.c **** 			case 4: TEMPLATE_TRANSFER_BYTE(DataStream);
  43:../../LUFA/Drivers/USB/LowLevel/Template/Template_Endpoint_RW.c **** 			case 3: TEMPLATE_TRANSFER_BYTE(DataStream);
  44:../../LUFA/Drivers/USB/LowLevel/Template/Template_Endpoint_RW.c **** 			case 2: TEMPLATE_TRANSFER_BYTE(DataStream);
  45:../../LUFA/Drivers/USB/LowLevel/Template/Template_Endpoint_RW.c **** 			case 1:	TEMPLATE_TRANSFER_BYTE(DataStream);
  46:../../LUFA/Drivers/USB/LowLevel/Template/Template_Endpoint_RW.c **** 				} while (Length >= 8);	
  47:../../LUFA/Drivers/USB/LowLevel/Template/Template_Endpoint_RW.c **** 		}
  48:../../LUFA/Drivers/USB/LowLevel/Template/Template_Endpoint_RW.c **** 	}
  49:../../LUFA/Drivers/USB/LowLevel/Template/Template_Endpoint_RW.c **** 	#endif
  50:../../LUFA/Drivers/USB/LowLevel/Template/Template_Endpoint_RW.c **** 
  51:../../LUFA/Drivers/USB/LowLevel/Template/Template_Endpoint_RW.c **** 	while (Length)
  52:../../LUFA/Drivers/USB/LowLevel/Template/Template_Endpoint_RW.c **** 	{
  53:../../LUFA/Drivers/USB/LowLevel/Template/Template_Endpoint_RW.c **** 		if (!(Endpoint_IsReadWriteAllowed()))
  54:../../LUFA/Drivers/USB/LowLevel/Template/Template_Endpoint_RW.c **** 		{
  55:../../LUFA/Drivers/USB/LowLevel/Template/Template_Endpoint_RW.c **** 			TEMPLATE_CLEAR_ENDPOINT();
  56:../../LUFA/Drivers/USB/LowLevel/Template/Template_Endpoint_RW.c **** 
  57:../../LUFA/Drivers/USB/LowLevel/Template/Template_Endpoint_RW.c **** 			#if !defined(NO_STREAM_CALLBACKS)
  58:../../LUFA/Drivers/USB/LowLevel/Template/Template_Endpoint_RW.c **** 			if ((Callback != NULL) && (Callback() == STREAMCALLBACK_Abort))
  59:../../LUFA/Drivers/USB/LowLevel/Template/Template_Endpoint_RW.c **** 			  return ENDPOINT_RWSTREAM_CallbackAborted;
  60:../../LUFA/Drivers/USB/LowLevel/Template/Template_Endpoint_RW.c **** 			#endif
  61:../../LUFA/Drivers/USB/LowLevel/Template/Template_Endpoint_RW.c **** 
  62:../../LUFA/Drivers/USB/LowLevel/Template/Template_Endpoint_RW.c **** 			if ((ErrorCode = Endpoint_WaitUntilReady()))
  63:../../LUFA/Drivers/USB/LowLevel/Template/Template_Endpoint_RW.c **** 			  return ErrorCode;
  64:../../LUFA/Drivers/USB/LowLevel/Template/Template_Endpoint_RW.c **** 		}
  65:../../LUFA/Drivers/USB/LowLevel/Template/Template_Endpoint_RW.c **** 		else
  66:../../LUFA/Drivers/USB/LowLevel/Template/Template_Endpoint_RW.c **** 		{
  67:../../LUFA/Drivers/USB/LowLevel/Template/Template_Endpoint_RW.c **** 			TEMPLATE_TRANSFER_BYTE(DataStream);
  68:../../LUFA/Drivers/USB/LowLevel/Template/Template_Endpoint_RW.c **** 			Length--;
  69:../../LUFA/Drivers/USB/LowLevel/Template/Template_Endpoint_RW.c **** 		}
  70:../../LUFA/Drivers/USB/LowLevel/Template/Template_Endpoint_RW.c **** 	}
  71:../../LUFA/Drivers/USB/LowLevel/Template/Template_Endpoint_RW.c **** 
  72:../../LUFA/Drivers/USB/LowLevel/Template/Template_Endpoint_RW.c **** 	return ENDPOINT_RWSTREAM_NoError;
  73:../../LUFA/Drivers/USB/LowLevel/Template/Template_Endpoint_RW.c **** }
 520               		.loc 3 73 0
 521 001e 8C2F      		mov r24,r28
 522               	/* epilogue start */
 523 0020 CF91      		pop r28
 524 0022 1F91      		pop r17
 525 0024 0F91      		pop r16
 526               	.LVL43:
 527 0026 FF90      		pop r15
 528 0028 EF90      		pop r14
 529               	.LVL44:
 530 002a DF90      		pop r13
 531 002c CF90      		pop r12
 532               	.LVL45:
 533 002e 0895      		ret
 534               	.LVL46:
 535               	.L50:
  58:../../LUFA/Drivers/USB/LowLevel/Template/Template_Endpoint_RW.c **** 			  return ENDPOINT_RWSTREAM_CallbackAborted;
 536               		.loc 3 58 0 discriminator 1
 537 0030 F601      		movw r30,r12
 538 0032 0995      		icall
 539               	.LVL47:
 540 0034 8130      		cpi r24,lo8(1)
 541 0036 01F4      		brne .L52
  59:../../LUFA/Drivers/USB/LowLevel/Template/Template_Endpoint_RW.c **** 			#endif
 542               		.loc 3 59 0
 543 0038 C5E0      		ldi r28,lo8(5)
 544 003a 00C0      		rjmp .L46
 545               	.L49:
 546               	.LVL48:
  67:../../LUFA/Drivers/USB/LowLevel/Template/Template_Endpoint_RW.c **** 			Length--;
 547               		.loc 3 67 0
 548 003c F701      		movw r30,r14
 549 003e 8081      		ld r24,Z
 550               	.LVL49:
 551               	.LBB298:
 552               	.LBB299:
 562:../../LUFA/Drivers/USB/LowLevel/Endpoint.h **** 			}
 553               		.loc 2 562 0
 554 0040 8093 F100 		sts 241,r24
 555               	.LVL50:
 556               	.LBE299:
 557               	.LBE298:
  68:../../LUFA/Drivers/USB/LowLevel/Template/Template_Endpoint_RW.c **** 		}
 558               		.loc 3 68 0
 559 0044 0150      		subi r16,1
 560 0046 1109      		sbc r17,__zero_reg__
 561               	.LVL51:
  67:../../LUFA/Drivers/USB/LowLevel/Template/Template_Endpoint_RW.c **** 			Length--;
 562               		.loc 3 67 0
 563 0048 C701      		movw r24,r14
 564 004a 0196      		adiw r24,1
 565               	.LVL52:
 566 004c 7C01      		movw r14,r24
 567               	.LVL53:
 568               	.L48:
  51:../../LUFA/Drivers/USB/LowLevel/Template/Template_Endpoint_RW.c **** 	{
 569               		.loc 3 51 0
 570 004e 0115      		cp r16,__zero_reg__
 571 0050 1105      		cpc r17,__zero_reg__
 572 0052 01F0      		breq .L46
 573               	.LBB300:
 574               	.LBB301:
 358:../../LUFA/Drivers/USB/LowLevel/Endpoint.h **** 			}
 575               		.loc 2 358 0
 576 0054 8091 E800 		lds r24,232
 577               	.LBE301:
 578               	.LBE300:
  53:../../LUFA/Drivers/USB/LowLevel/Template/Template_Endpoint_RW.c **** 		{
 579               		.loc 3 53 0
 580 0058 85FD      		sbrc r24,5
 581 005a 00C0      		rjmp .L49
 582               	.LBB302:
 583               	.LBB303:
 454:../../LUFA/Drivers/USB/LowLevel/Endpoint.h **** 				#else
 584               		.loc 2 454 0
 585 005c 8091 E800 		lds r24,232
 586 0060 8E77      		andi r24,lo8(126)
 587 0062 8093 E800 		sts 232,r24
 588               	.LBE303:
 589               	.LBE302:
  58:../../LUFA/Drivers/USB/LowLevel/Template/Template_Endpoint_RW.c **** 			  return ENDPOINT_RWSTREAM_CallbackAborted;
 590               		.loc 3 58 0
 591 0066 C114      		cp r12,__zero_reg__
 592 0068 D104      		cpc r13,__zero_reg__
 593 006a 01F4      		brne .L50
 594               	.L52:
  62:../../LUFA/Drivers/USB/LowLevel/Template/Template_Endpoint_RW.c **** 			  return ErrorCode;
 595               		.loc 3 62 0
 596 006c 0E94 0000 		call Endpoint_WaitUntilReady
 597               	.LVL54:
 598 0070 8823      		tst r24
 599 0072 01F0      		breq .L48
 600 0074 C82F      		mov r28,r24
 601 0076 00C0      		rjmp .L46
 602               		.cfi_endproc
 603               	.LFE70:
 605               		.section	.text.Endpoint_Write_PStream_LE,"ax",@progbits
 606               	.global	Endpoint_Write_PStream_LE
 608               	Endpoint_Write_PStream_LE:
 609               	.LFB71:
   4:../../LUFA/Drivers/USB/LowLevel/Template/Template_Endpoint_RW.c **** 	uint8_t* DataStream = ((uint8_t*)Buffer + TEMPLATE_BUFFER_OFFSET(Length));
 610               		.loc 3 4 0
 611               		.cfi_startproc
 612               	.LVL55:
 613 0000 CF92      		push r12
 614               	.LCFI12:
 615               		.cfi_def_cfa_offset 3
 616               		.cfi_offset 12, -2
 617 0002 DF92      		push r13
 618               	.LCFI13:
 619               		.cfi_def_cfa_offset 4
 620               		.cfi_offset 13, -3
 621 0004 EF92      		push r14
 622               	.LCFI14:
 623               		.cfi_def_cfa_offset 5
 624               		.cfi_offset 14, -4
 625 0006 FF92      		push r15
 626               	.LCFI15:
 627               		.cfi_def_cfa_offset 6
 628               		.cfi_offset 15, -5
 629 0008 1F93      		push r17
 630               	.LCFI16:
 631               		.cfi_def_cfa_offset 7
 632               		.cfi_offset 17, -6
 633 000a CF93      		push r28
 634               	.LCFI17:
 635               		.cfi_def_cfa_offset 8
 636               		.cfi_offset 28, -7
 637 000c DF93      		push r29
 638               	.LCFI18:
 639               		.cfi_def_cfa_offset 9
 640               		.cfi_offset 29, -8
 641               	/* prologue: function */
 642               	/* frame size = 0 */
 643               	/* stack size = 7 */
 644               	.L__stack_usage = 7
 645 000e EC01      		movw r28,r24
 646 0010 7B01      		movw r14,r22
 647 0012 6A01      		movw r12,r20
 648               	.LVL56:
   8:../../LUFA/Drivers/USB/LowLevel/Template/Template_Endpoint_RW.c **** 	  return ErrorCode;
 649               		.loc 3 8 0
 650 0014 0E94 0000 		call Endpoint_WaitUntilReady
 651               	.LVL57:
 652 0018 182F      		mov r17,r24
 653               	.LVL58:
 654 001a 8823      		tst r24
 655 001c 01F0      		breq .L58
 656               	.LVL59:
 657               	.L56:
 658               		.loc 3 73 0
 659 001e 812F      		mov r24,r17
 660               	/* epilogue start */
 661 0020 DF91      		pop r29
 662 0022 CF91      		pop r28
 663               	.LVL60:
 664 0024 1F91      		pop r17
 665 0026 FF90      		pop r15
 666 0028 EF90      		pop r14
 667               	.LVL61:
 668 002a DF90      		pop r13
 669 002c CF90      		pop r12
 670               	.LVL62:
 671 002e 0895      		ret
 672               	.LVL63:
 673               	.L60:
  58:../../LUFA/Drivers/USB/LowLevel/Template/Template_Endpoint_RW.c **** 			  return ENDPOINT_RWSTREAM_CallbackAborted;
 674               		.loc 3 58 0 discriminator 1
 675 0030 F601      		movw r30,r12
 676 0032 0995      		icall
 677               	.LVL64:
 678 0034 8130      		cpi r24,lo8(1)
 679 0036 01F4      		brne .L62
  59:../../LUFA/Drivers/USB/LowLevel/Template/Template_Endpoint_RW.c **** 			#endif
 680               		.loc 3 59 0
 681 0038 15E0      		ldi r17,lo8(5)
 682 003a 00C0      		rjmp .L56
 683               	.L59:
 684               	.LBB304:
  67:../../LUFA/Drivers/USB/LowLevel/Template/Template_Endpoint_RW.c **** 			Length--;
 685               		.loc 3 67 0
 686 003c CE01      		movw r24,r28
 687 003e 0196      		adiw r24,1
 688               	.LVL65:
 689 0040 FE01      		movw r30,r28
 690               	/* #APP */
 691               	 ;  67 "../../LUFA/Drivers/USB/LowLevel/Template/Template_Endpoint_RW.c" 1
 692 0042 C491      		lpm r28, Z
 693               		
 694               	 ;  0 "" 2
 695               	.LVL66:
 696               	/* #NOAPP */
 697               	.LBE304:
 698               	.LBB305:
 699               	.LBB306:
 562:../../LUFA/Drivers/USB/LowLevel/Endpoint.h **** 			}
 700               		.loc 2 562 0
 701 0044 C093 F100 		sts 241,r28
 702               	.LVL67:
 703               	.LBE306:
 704               	.LBE305:
  68:../../LUFA/Drivers/USB/LowLevel/Template/Template_Endpoint_RW.c **** 		}
 705               		.loc 3 68 0
 706 0048 F1E0      		ldi r31,1
 707 004a EF1A      		sub r14,r31
 708 004c F108      		sbc r15,__zero_reg__
 709               	.LVL68:
 710               	.LBB307:
  67:../../LUFA/Drivers/USB/LowLevel/Template/Template_Endpoint_RW.c **** 			Length--;
 711               		.loc 3 67 0
 712 004e EC01      		movw r28,r24
 713               	.LVL69:
 714               	.L58:
 715               	.LBE307:
  51:../../LUFA/Drivers/USB/LowLevel/Template/Template_Endpoint_RW.c **** 	{
 716               		.loc 3 51 0
 717 0050 E114      		cp r14,__zero_reg__
 718 0052 F104      		cpc r15,__zero_reg__
 719 0054 01F0      		breq .L56
 720               	.LBB308:
 721               	.LBB309:
 358:../../LUFA/Drivers/USB/LowLevel/Endpoint.h **** 			}
 722               		.loc 2 358 0
 723 0056 8091 E800 		lds r24,232
 724               	.LBE309:
 725               	.LBE308:
  53:../../LUFA/Drivers/USB/LowLevel/Template/Template_Endpoint_RW.c **** 		{
 726               		.loc 3 53 0
 727 005a 85FD      		sbrc r24,5
 728 005c 00C0      		rjmp .L59
 729               	.LBB310:
 730               	.LBB311:
 454:../../LUFA/Drivers/USB/LowLevel/Endpoint.h **** 				#else
 731               		.loc 2 454 0
 732 005e 8091 E800 		lds r24,232
 733 0062 8E77      		andi r24,lo8(126)
 734 0064 8093 E800 		sts 232,r24
 735               	.LBE311:
 736               	.LBE310:
  58:../../LUFA/Drivers/USB/LowLevel/Template/Template_Endpoint_RW.c **** 			  return ENDPOINT_RWSTREAM_CallbackAborted;
 737               		.loc 3 58 0
 738 0068 C114      		cp r12,__zero_reg__
 739 006a D104      		cpc r13,__zero_reg__
 740 006c 01F4      		brne .L60
 741               	.L62:
  62:../../LUFA/Drivers/USB/LowLevel/Template/Template_Endpoint_RW.c **** 			  return ErrorCode;
 742               		.loc 3 62 0
 743 006e 0E94 0000 		call Endpoint_WaitUntilReady
 744               	.LVL70:
 745 0072 8823      		tst r24
 746 0074 01F0      		breq .L58
 747 0076 182F      		mov r17,r24
 748 0078 00C0      		rjmp .L56
 749               		.cfi_endproc
 750               	.LFE71:
 752               		.section	.text.Endpoint_Write_EStream_LE,"ax",@progbits
 753               	.global	Endpoint_Write_EStream_LE
 755               	Endpoint_Write_EStream_LE:
 756               	.LFB72:
   4:../../LUFA/Drivers/USB/LowLevel/Template/Template_Endpoint_RW.c **** 	uint8_t* DataStream = ((uint8_t*)Buffer + TEMPLATE_BUFFER_OFFSET(Length));
 757               		.loc 3 4 0
 758               		.cfi_startproc
 759               	.LVL71:
 760 0000 AF92      		push r10
 761               	.LCFI19:
 762               		.cfi_def_cfa_offset 3
 763               		.cfi_offset 10, -2
 764 0002 BF92      		push r11
 765               	.LCFI20:
 766               		.cfi_def_cfa_offset 4
 767               		.cfi_offset 11, -3
 768 0004 CF92      		push r12
 769               	.LCFI21:
 770               		.cfi_def_cfa_offset 5
 771               		.cfi_offset 12, -4
 772 0006 DF92      		push r13
 773               	.LCFI22:
 774               		.cfi_def_cfa_offset 6
 775               		.cfi_offset 13, -5
 776 0008 EF92      		push r14
 777               	.LCFI23:
 778               		.cfi_def_cfa_offset 7
 779               		.cfi_offset 14, -6
 780 000a FF92      		push r15
 781               	.LCFI24:
 782               		.cfi_def_cfa_offset 8
 783               		.cfi_offset 15, -7
 784 000c 0F93      		push r16
 785               	.LCFI25:
 786               		.cfi_def_cfa_offset 9
 787               		.cfi_offset 16, -8
 788 000e 1F93      		push r17
 789               	.LCFI26:
 790               		.cfi_def_cfa_offset 10
 791               		.cfi_offset 17, -9
 792 0010 CF93      		push r28
 793               	.LCFI27:
 794               		.cfi_def_cfa_offset 11
 795               		.cfi_offset 28, -10
 796               	/* prologue: function */
 797               	/* frame size = 0 */
 798               	/* stack size = 9 */
 799               	.L__stack_usage = 9
 800 0012 7C01      		movw r14,r24
 801 0014 8B01      		movw r16,r22
 802 0016 6A01      		movw r12,r20
 803               	.LVL72:
   8:../../LUFA/Drivers/USB/LowLevel/Template/Template_Endpoint_RW.c **** 	  return ErrorCode;
 804               		.loc 3 8 0
 805 0018 0E94 0000 		call Endpoint_WaitUntilReady
 806               	.LVL73:
 807 001c C82F      		mov r28,r24
 808               	.LVL74:
 809 001e 8823      		tst r24
 810 0020 01F0      		breq .L68
 811               	.LVL75:
 812               	.L66:
 813               		.loc 3 73 0
 814 0022 8C2F      		mov r24,r28
 815               	/* epilogue start */
 816 0024 CF91      		pop r28
 817 0026 1F91      		pop r17
 818 0028 0F91      		pop r16
 819               	.LVL76:
 820 002a FF90      		pop r15
 821 002c EF90      		pop r14
 822               	.LVL77:
 823 002e DF90      		pop r13
 824 0030 CF90      		pop r12
 825               	.LVL78:
 826 0032 BF90      		pop r11
 827 0034 AF90      		pop r10
 828 0036 0895      		ret
 829               	.LVL79:
 830               	.L70:
  58:../../LUFA/Drivers/USB/LowLevel/Template/Template_Endpoint_RW.c **** 			  return ENDPOINT_RWSTREAM_CallbackAborted;
 831               		.loc 3 58 0 discriminator 1
 832 0038 F601      		movw r30,r12
 833 003a 0995      		icall
 834               	.LVL80:
 835 003c 8130      		cpi r24,lo8(1)
 836 003e 01F4      		brne .L72
  59:../../LUFA/Drivers/USB/LowLevel/Template/Template_Endpoint_RW.c **** 			#endif
 837               		.loc 3 59 0
 838 0040 C5E0      		ldi r28,lo8(5)
 839 0042 00C0      		rjmp .L66
 840               	.L69:
  67:../../LUFA/Drivers/USB/LowLevel/Template/Template_Endpoint_RW.c **** 			Length--;
 841               		.loc 3 67 0
 842 0044 5701      		movw r10,r14
 843 0046 FFEF      		ldi r31,-1
 844 0048 AF1A      		sub r10,r31
 845 004a BF0A      		sbc r11,r31
 846               	.LVL81:
 847 004c C701      		movw r24,r14
 848 004e 0E94 0000 		call eeprom_read_byte
 849               	.LVL82:
 850               	.LBB312:
 851               	.LBB313:
 562:../../LUFA/Drivers/USB/LowLevel/Endpoint.h **** 			}
 852               		.loc 2 562 0
 853 0052 8093 F100 		sts 241,r24
 854               	.LVL83:
 855               	.LBE313:
 856               	.LBE312:
  68:../../LUFA/Drivers/USB/LowLevel/Template/Template_Endpoint_RW.c **** 		}
 857               		.loc 3 68 0
 858 0056 0150      		subi r16,1
 859 0058 1109      		sbc r17,__zero_reg__
 860               	.LVL84:
  67:../../LUFA/Drivers/USB/LowLevel/Template/Template_Endpoint_RW.c **** 			Length--;
 861               		.loc 3 67 0
 862 005a 7501      		movw r14,r10
 863               	.LVL85:
 864               	.L68:
  51:../../LUFA/Drivers/USB/LowLevel/Template/Template_Endpoint_RW.c **** 	{
 865               		.loc 3 51 0
 866 005c 0115      		cp r16,__zero_reg__
 867 005e 1105      		cpc r17,__zero_reg__
 868 0060 01F0      		breq .L66
 869               	.LBB314:
 870               	.LBB315:
 358:../../LUFA/Drivers/USB/LowLevel/Endpoint.h **** 			}
 871               		.loc 2 358 0
 872 0062 8091 E800 		lds r24,232
 873               	.LBE315:
 874               	.LBE314:
  53:../../LUFA/Drivers/USB/LowLevel/Template/Template_Endpoint_RW.c **** 		{
 875               		.loc 3 53 0
 876 0066 85FD      		sbrc r24,5
 877 0068 00C0      		rjmp .L69
 878               	.LBB316:
 879               	.LBB317:
 454:../../LUFA/Drivers/USB/LowLevel/Endpoint.h **** 				#else
 880               		.loc 2 454 0
 881 006a 8091 E800 		lds r24,232
 882 006e 8E77      		andi r24,lo8(126)
 883 0070 8093 E800 		sts 232,r24
 884               	.LBE317:
 885               	.LBE316:
  58:../../LUFA/Drivers/USB/LowLevel/Template/Template_Endpoint_RW.c **** 			  return ENDPOINT_RWSTREAM_CallbackAborted;
 886               		.loc 3 58 0
 887 0074 C114      		cp r12,__zero_reg__
 888 0076 D104      		cpc r13,__zero_reg__
 889 0078 01F4      		brne .L70
 890               	.L72:
  62:../../LUFA/Drivers/USB/LowLevel/Template/Template_Endpoint_RW.c **** 			  return ErrorCode;
 891               		.loc 3 62 0
 892 007a 0E94 0000 		call Endpoint_WaitUntilReady
 893               	.LVL86:
 894 007e 8823      		tst r24
 895 0080 01F0      		breq .L68
 896 0082 C82F      		mov r28,r24
 897 0084 00C0      		rjmp .L66
 898               		.cfi_endproc
 899               	.LFE72:
 901               		.section	.text.Endpoint_Write_Stream_BE,"ax",@progbits
 902               	.global	Endpoint_Write_Stream_BE
 904               	Endpoint_Write_Stream_BE:
 905               	.LFB73:
   4:../../LUFA/Drivers/USB/LowLevel/Template/Template_Endpoint_RW.c **** 	uint8_t* DataStream = ((uint8_t*)Buffer + TEMPLATE_BUFFER_OFFSET(Length));
 906               		.loc 3 4 0
 907               		.cfi_startproc
 908               	.LVL87:
 909 0000 CF92      		push r12
 910               	.LCFI28:
 911               		.cfi_def_cfa_offset 3
 912               		.cfi_offset 12, -2
 913 0002 DF92      		push r13
 914               	.LCFI29:
 915               		.cfi_def_cfa_offset 4
 916               		.cfi_offset 13, -3
 917 0004 EF92      		push r14
 918               	.LCFI30:
 919               		.cfi_def_cfa_offset 5
 920               		.cfi_offset 14, -4
 921 0006 FF92      		push r15
 922               	.LCFI31:
 923               		.cfi_def_cfa_offset 6
 924               		.cfi_offset 15, -5
 925 0008 1F93      		push r17
 926               	.LCFI32:
 927               		.cfi_def_cfa_offset 7
 928               		.cfi_offset 17, -6
 929 000a CF93      		push r28
 930               	.LCFI33:
 931               		.cfi_def_cfa_offset 8
 932               		.cfi_offset 28, -7
 933 000c DF93      		push r29
 934               	.LCFI34:
 935               		.cfi_def_cfa_offset 9
 936               		.cfi_offset 29, -8
 937               	/* prologue: function */
 938               	/* frame size = 0 */
 939               	/* stack size = 7 */
 940               	.L__stack_usage = 7
 941 000e EC01      		movw r28,r24
 942 0010 7B01      		movw r14,r22
 943 0012 6A01      		movw r12,r20
 944               	.LVL88:
   8:../../LUFA/Drivers/USB/LowLevel/Template/Template_Endpoint_RW.c **** 	  return ErrorCode;
 945               		.loc 3 8 0
 946 0014 0E94 0000 		call Endpoint_WaitUntilReady
 947               	.LVL89:
 948 0018 182F      		mov r17,r24
 949               	.LVL90:
 950 001a 8111      		cpse r24,__zero_reg__
 951 001c 00C0      		rjmp .L76
   5:../../LUFA/Drivers/USB/LowLevel/Template/Template_Endpoint_RW.c **** 	uint8_t  ErrorCode;
 952               		.loc 3 5 0
 953 001e C701      		movw r24,r14
 954 0020 0197      		sbiw r24,1
 955               	.LVL91:
 956 0022 C80F      		add r28,r24
 957 0024 D91F      		adc r29,r25
 958               	.LVL92:
 959               	.L78:
  51:../../LUFA/Drivers/USB/LowLevel/Template/Template_Endpoint_RW.c **** 	{
 960               		.loc 3 51 0
 961 0026 E114      		cp r14,__zero_reg__
 962 0028 F104      		cpc r15,__zero_reg__
 963 002a 01F4      		brne .L83
 964               	.LVL93:
 965               	.L76:
 966               		.loc 3 73 0
 967 002c 812F      		mov r24,r17
 968               	/* epilogue start */
 969 002e DF91      		pop r29
 970 0030 CF91      		pop r28
 971 0032 1F91      		pop r17
 972 0034 FF90      		pop r15
 973 0036 EF90      		pop r14
 974               	.LVL94:
 975 0038 DF90      		pop r13
 976 003a CF90      		pop r12
 977               	.LVL95:
 978 003c 0895      		ret
 979               	.LVL96:
 980               	.L83:
 981               	.LBB318:
 982               	.LBB319:
 358:../../LUFA/Drivers/USB/LowLevel/Endpoint.h **** 			}
 983               		.loc 2 358 0
 984 003e 8091 E800 		lds r24,232
 985               	.LBE319:
 986               	.LBE318:
  53:../../LUFA/Drivers/USB/LowLevel/Template/Template_Endpoint_RW.c **** 		{
 987               		.loc 3 53 0
 988 0042 85FD      		sbrc r24,5
 989 0044 00C0      		rjmp .L79
 990               	.LBB320:
 991               	.LBB321:
 454:../../LUFA/Drivers/USB/LowLevel/Endpoint.h **** 				#else
 992               		.loc 2 454 0
 993 0046 8091 E800 		lds r24,232
 994 004a 8E77      		andi r24,lo8(126)
 995 004c 8093 E800 		sts 232,r24
 996               	.LBE321:
 997               	.LBE320:
  58:../../LUFA/Drivers/USB/LowLevel/Template/Template_Endpoint_RW.c **** 			  return ENDPOINT_RWSTREAM_CallbackAborted;
 998               		.loc 3 58 0
 999 0050 C114      		cp r12,__zero_reg__
 1000 0052 D104      		cpc r13,__zero_reg__
 1001 0054 01F4      		brne .L80
 1002               	.L82:
  62:../../LUFA/Drivers/USB/LowLevel/Template/Template_Endpoint_RW.c **** 			  return ErrorCode;
 1003               		.loc 3 62 0
 1004 0056 0E94 0000 		call Endpoint_WaitUntilReady
 1005               	.LVL97:
 1006 005a 8823      		tst r24
 1007 005c 01F0      		breq .L78
 1008 005e 182F      		mov r17,r24
 1009 0060 00C0      		rjmp .L76
 1010               	.LVL98:
 1011               	.L80:
  58:../../LUFA/Drivers/USB/LowLevel/Template/Template_Endpoint_RW.c **** 			  return ENDPOINT_RWSTREAM_CallbackAborted;
 1012               		.loc 3 58 0 discriminator 1
 1013 0062 F601      		movw r30,r12
 1014 0064 0995      		icall
 1015               	.LVL99:
 1016 0066 8130      		cpi r24,lo8(1)
 1017 0068 01F4      		brne .L82
  59:../../LUFA/Drivers/USB/LowLevel/Template/Template_Endpoint_RW.c **** 			#endif
 1018               		.loc 3 59 0
 1019 006a 15E0      		ldi r17,lo8(5)
 1020 006c 00C0      		rjmp .L76
 1021               	.L79:
 1022               	.LVL100:
  67:../../LUFA/Drivers/USB/LowLevel/Template/Template_Endpoint_RW.c **** 			Length--;
 1023               		.loc 3 67 0
 1024 006e 8881      		ld r24,Y
 1025               	.LVL101:
 1026               	.LBB322:
 1027               	.LBB323:
 562:../../LUFA/Drivers/USB/LowLevel/Endpoint.h **** 			}
 1028               		.loc 2 562 0
 1029 0070 8093 F100 		sts 241,r24
 1030               	.LVL102:
 1031               	.LBE323:
 1032               	.LBE322:
  68:../../LUFA/Drivers/USB/LowLevel/Template/Template_Endpoint_RW.c **** 		}
 1033               		.loc 3 68 0
 1034 0074 F1E0      		ldi r31,1
 1035 0076 EF1A      		sub r14,r31
 1036 0078 F108      		sbc r15,__zero_reg__
 1037               	.LVL103:
  67:../../LUFA/Drivers/USB/LowLevel/Template/Template_Endpoint_RW.c **** 			Length--;
 1038               		.loc 3 67 0
 1039 007a 2197      		sbiw r28,1
 1040               	.LVL104:
 1041 007c 00C0      		rjmp .L78
 1042               		.cfi_endproc
 1043               	.LFE73:
 1045               		.section	.text.Endpoint_Write_EStream_BE,"ax",@progbits
 1046               	.global	Endpoint_Write_EStream_BE
 1048               	Endpoint_Write_EStream_BE:
 1049               	.LFB74:
   4:../../LUFA/Drivers/USB/LowLevel/Template/Template_Endpoint_RW.c **** 	uint8_t* DataStream = ((uint8_t*)Buffer + TEMPLATE_BUFFER_OFFSET(Length));
 1050               		.loc 3 4 0
 1051               		.cfi_startproc
 1052               	.LVL105:
 1053 0000 AF92      		push r10
 1054               	.LCFI35:
 1055               		.cfi_def_cfa_offset 3
 1056               		.cfi_offset 10, -2
 1057 0002 BF92      		push r11
 1058               	.LCFI36:
 1059               		.cfi_def_cfa_offset 4
 1060               		.cfi_offset 11, -3
 1061 0004 CF92      		push r12
 1062               	.LCFI37:
 1063               		.cfi_def_cfa_offset 5
 1064               		.cfi_offset 12, -4
 1065 0006 DF92      		push r13
 1066               	.LCFI38:
 1067               		.cfi_def_cfa_offset 6
 1068               		.cfi_offset 13, -5
 1069 0008 EF92      		push r14
 1070               	.LCFI39:
 1071               		.cfi_def_cfa_offset 7
 1072               		.cfi_offset 14, -6
 1073 000a FF92      		push r15
 1074               	.LCFI40:
 1075               		.cfi_def_cfa_offset 8
 1076               		.cfi_offset 15, -7
 1077 000c 1F93      		push r17
 1078               	.LCFI41:
 1079               		.cfi_def_cfa_offset 9
 1080               		.cfi_offset 17, -8
 1081 000e CF93      		push r28
 1082               	.LCFI42:
 1083               		.cfi_def_cfa_offset 10
 1084               		.cfi_offset 28, -9
 1085 0010 DF93      		push r29
 1086               	.LCFI43:
 1087               		.cfi_def_cfa_offset 11
 1088               		.cfi_offset 29, -10
 1089               	/* prologue: function */
 1090               	/* frame size = 0 */
 1091               	/* stack size = 9 */
 1092               	.L__stack_usage = 9
 1093 0012 EC01      		movw r28,r24
 1094 0014 7B01      		movw r14,r22
 1095 0016 6A01      		movw r12,r20
 1096               	.LVL106:
   8:../../LUFA/Drivers/USB/LowLevel/Template/Template_Endpoint_RW.c **** 	  return ErrorCode;
 1097               		.loc 3 8 0
 1098 0018 0E94 0000 		call Endpoint_WaitUntilReady
 1099               	.LVL107:
 1100 001c 182F      		mov r17,r24
 1101               	.LVL108:
 1102 001e 8111      		cpse r24,__zero_reg__
 1103 0020 00C0      		rjmp .L86
   5:../../LUFA/Drivers/USB/LowLevel/Template/Template_Endpoint_RW.c **** 	uint8_t  ErrorCode;
 1104               		.loc 3 5 0
 1105 0022 C701      		movw r24,r14
 1106 0024 0197      		sbiw r24,1
 1107               	.LVL109:
 1108 0026 C80F      		add r28,r24
 1109 0028 D91F      		adc r29,r25
 1110               	.LVL110:
 1111               	.L88:
  51:../../LUFA/Drivers/USB/LowLevel/Template/Template_Endpoint_RW.c **** 	{
 1112               		.loc 3 51 0
 1113 002a E114      		cp r14,__zero_reg__
 1114 002c F104      		cpc r15,__zero_reg__
 1115 002e 01F4      		brne .L93
 1116               	.LVL111:
 1117               	.L86:
 1118               		.loc 3 73 0
 1119 0030 812F      		mov r24,r17
 1120               	/* epilogue start */
 1121 0032 DF91      		pop r29
 1122 0034 CF91      		pop r28
 1123 0036 1F91      		pop r17
 1124 0038 FF90      		pop r15
 1125 003a EF90      		pop r14
 1126               	.LVL112:
 1127 003c DF90      		pop r13
 1128 003e CF90      		pop r12
 1129               	.LVL113:
 1130 0040 BF90      		pop r11
 1131 0042 AF90      		pop r10
 1132 0044 0895      		ret
 1133               	.LVL114:
 1134               	.L93:
 1135               	.LBB324:
 1136               	.LBB325:
 358:../../LUFA/Drivers/USB/LowLevel/Endpoint.h **** 			}
 1137               		.loc 2 358 0
 1138 0046 8091 E800 		lds r24,232
 1139               	.LBE325:
 1140               	.LBE324:
  53:../../LUFA/Drivers/USB/LowLevel/Template/Template_Endpoint_RW.c **** 		{
 1141               		.loc 3 53 0
 1142 004a 85FD      		sbrc r24,5
 1143 004c 00C0      		rjmp .L89
 1144               	.LBB326:
 1145               	.LBB327:
 454:../../LUFA/Drivers/USB/LowLevel/Endpoint.h **** 				#else
 1146               		.loc 2 454 0
 1147 004e 8091 E800 		lds r24,232
 1148 0052 8E77      		andi r24,lo8(126)
 1149 0054 8093 E800 		sts 232,r24
 1150               	.LBE327:
 1151               	.LBE326:
  58:../../LUFA/Drivers/USB/LowLevel/Template/Template_Endpoint_RW.c **** 			  return ENDPOINT_RWSTREAM_CallbackAborted;
 1152               		.loc 3 58 0
 1153 0058 C114      		cp r12,__zero_reg__
 1154 005a D104      		cpc r13,__zero_reg__
 1155 005c 01F4      		brne .L90
 1156               	.L92:
  62:../../LUFA/Drivers/USB/LowLevel/Template/Template_Endpoint_RW.c **** 			  return ErrorCode;
 1157               		.loc 3 62 0
 1158 005e 0E94 0000 		call Endpoint_WaitUntilReady
 1159               	.LVL115:
 1160 0062 8823      		tst r24
 1161 0064 01F0      		breq .L88
 1162 0066 182F      		mov r17,r24
 1163 0068 00C0      		rjmp .L86
 1164               	.LVL116:
 1165               	.L90:
  58:../../LUFA/Drivers/USB/LowLevel/Template/Template_Endpoint_RW.c **** 			  return ENDPOINT_RWSTREAM_CallbackAborted;
 1166               		.loc 3 58 0 discriminator 1
 1167 006a F601      		movw r30,r12
 1168 006c 0995      		icall
 1169               	.LVL117:
 1170 006e 8130      		cpi r24,lo8(1)
 1171 0070 01F4      		brne .L92
  59:../../LUFA/Drivers/USB/LowLevel/Template/Template_Endpoint_RW.c **** 			#endif
 1172               		.loc 3 59 0
 1173 0072 15E0      		ldi r17,lo8(5)
 1174 0074 00C0      		rjmp .L86
 1175               	.L89:
  67:../../LUFA/Drivers/USB/LowLevel/Template/Template_Endpoint_RW.c **** 			Length--;
 1176               		.loc 3 67 0
 1177 0076 5E01      		movw r10,r28
 1178 0078 F1E0      		ldi r31,1
 1179 007a AF1A      		sub r10,r31
 1180 007c B108      		sbc r11,__zero_reg__
 1181               	.LVL118:
 1182 007e CE01      		movw r24,r28
 1183 0080 0E94 0000 		call eeprom_read_byte
 1184               	.LVL119:
 1185               	.LBB328:
 1186               	.LBB329:
 562:../../LUFA/Drivers/USB/LowLevel/Endpoint.h **** 			}
 1187               		.loc 2 562 0
 1188 0084 8093 F100 		sts 241,r24
 1189               	.LVL120:
 1190               	.LBE329:
 1191               	.LBE328:
  68:../../LUFA/Drivers/USB/LowLevel/Template/Template_Endpoint_RW.c **** 		}
 1192               		.loc 3 68 0
 1193 0088 81E0      		ldi r24,1
 1194 008a E81A      		sub r14,r24
 1195 008c F108      		sbc r15,__zero_reg__
 1196               	.LVL121:
  67:../../LUFA/Drivers/USB/LowLevel/Template/Template_Endpoint_RW.c **** 			Length--;
 1197               		.loc 3 67 0
 1198 008e E501      		movw r28,r10
 1199 0090 00C0      		rjmp .L88
 1200               		.cfi_endproc
 1201               	.LFE74:
 1203               		.section	.text.Endpoint_Write_PStream_BE,"ax",@progbits
 1204               	.global	Endpoint_Write_PStream_BE
 1206               	Endpoint_Write_PStream_BE:
 1207               	.LFB75:
   4:../../LUFA/Drivers/USB/LowLevel/Template/Template_Endpoint_RW.c **** 	uint8_t* DataStream = ((uint8_t*)Buffer + TEMPLATE_BUFFER_OFFSET(Length));
 1208               		.loc 3 4 0
 1209               		.cfi_startproc
 1210               	.LVL122:
 1211 0000 CF92      		push r12
 1212               	.LCFI44:
 1213               		.cfi_def_cfa_offset 3
 1214               		.cfi_offset 12, -2
 1215 0002 DF92      		push r13
 1216               	.LCFI45:
 1217               		.cfi_def_cfa_offset 4
 1218               		.cfi_offset 13, -3
 1219 0004 EF92      		push r14
 1220               	.LCFI46:
 1221               		.cfi_def_cfa_offset 5
 1222               		.cfi_offset 14, -4
 1223 0006 FF92      		push r15
 1224               	.LCFI47:
 1225               		.cfi_def_cfa_offset 6
 1226               		.cfi_offset 15, -5
 1227 0008 1F93      		push r17
 1228               	.LCFI48:
 1229               		.cfi_def_cfa_offset 7
 1230               		.cfi_offset 17, -6
 1231 000a CF93      		push r28
 1232               	.LCFI49:
 1233               		.cfi_def_cfa_offset 8
 1234               		.cfi_offset 28, -7
 1235 000c DF93      		push r29
 1236               	.LCFI50:
 1237               		.cfi_def_cfa_offset 9
 1238               		.cfi_offset 29, -8
 1239               	/* prologue: function */
 1240               	/* frame size = 0 */
 1241               	/* stack size = 7 */
 1242               	.L__stack_usage = 7
 1243 000e EC01      		movw r28,r24
 1244 0010 7B01      		movw r14,r22
 1245 0012 6A01      		movw r12,r20
 1246               	.LVL123:
   8:../../LUFA/Drivers/USB/LowLevel/Template/Template_Endpoint_RW.c **** 	  return ErrorCode;
 1247               		.loc 3 8 0
 1248 0014 0E94 0000 		call Endpoint_WaitUntilReady
 1249               	.LVL124:
 1250 0018 182F      		mov r17,r24
 1251               	.LVL125:
 1252 001a 8111      		cpse r24,__zero_reg__
 1253 001c 00C0      		rjmp .L96
   5:../../LUFA/Drivers/USB/LowLevel/Template/Template_Endpoint_RW.c **** 	uint8_t  ErrorCode;
 1254               		.loc 3 5 0
 1255 001e C701      		movw r24,r14
 1256 0020 0197      		sbiw r24,1
 1257               	.LVL126:
 1258 0022 C80F      		add r28,r24
 1259 0024 D91F      		adc r29,r25
 1260               	.LVL127:
 1261               	.L98:
  51:../../LUFA/Drivers/USB/LowLevel/Template/Template_Endpoint_RW.c **** 	{
 1262               		.loc 3 51 0
 1263 0026 E114      		cp r14,__zero_reg__
 1264 0028 F104      		cpc r15,__zero_reg__
 1265 002a 01F4      		brne .L103
 1266               	.LVL128:
 1267               	.L96:
 1268               		.loc 3 73 0
 1269 002c 812F      		mov r24,r17
 1270               	/* epilogue start */
 1271 002e DF91      		pop r29
 1272 0030 CF91      		pop r28
 1273 0032 1F91      		pop r17
 1274 0034 FF90      		pop r15
 1275 0036 EF90      		pop r14
 1276               	.LVL129:
 1277 0038 DF90      		pop r13
 1278 003a CF90      		pop r12
 1279               	.LVL130:
 1280 003c 0895      		ret
 1281               	.LVL131:
 1282               	.L103:
 1283               	.LBB330:
 1284               	.LBB331:
 358:../../LUFA/Drivers/USB/LowLevel/Endpoint.h **** 			}
 1285               		.loc 2 358 0
 1286 003e 8091 E800 		lds r24,232
 1287               	.LBE331:
 1288               	.LBE330:
  53:../../LUFA/Drivers/USB/LowLevel/Template/Template_Endpoint_RW.c **** 		{
 1289               		.loc 3 53 0
 1290 0042 85FD      		sbrc r24,5
 1291 0044 00C0      		rjmp .L99
 1292               	.LBB332:
 1293               	.LBB333:
 454:../../LUFA/Drivers/USB/LowLevel/Endpoint.h **** 				#else
 1294               		.loc 2 454 0
 1295 0046 8091 E800 		lds r24,232
 1296 004a 8E77      		andi r24,lo8(126)
 1297 004c 8093 E800 		sts 232,r24
 1298               	.LBE333:
 1299               	.LBE332:
  58:../../LUFA/Drivers/USB/LowLevel/Template/Template_Endpoint_RW.c **** 			  return ENDPOINT_RWSTREAM_CallbackAborted;
 1300               		.loc 3 58 0
 1301 0050 C114      		cp r12,__zero_reg__
 1302 0052 D104      		cpc r13,__zero_reg__
 1303 0054 01F4      		brne .L100
 1304               	.L102:
  62:../../LUFA/Drivers/USB/LowLevel/Template/Template_Endpoint_RW.c **** 			  return ErrorCode;
 1305               		.loc 3 62 0
 1306 0056 0E94 0000 		call Endpoint_WaitUntilReady
 1307               	.LVL132:
 1308 005a 8823      		tst r24
 1309 005c 01F0      		breq .L98
 1310 005e 182F      		mov r17,r24
 1311 0060 00C0      		rjmp .L96
 1312               	.LVL133:
 1313               	.L100:
  58:../../LUFA/Drivers/USB/LowLevel/Template/Template_Endpoint_RW.c **** 			  return ENDPOINT_RWSTREAM_CallbackAborted;
 1314               		.loc 3 58 0 discriminator 1
 1315 0062 F601      		movw r30,r12
 1316 0064 0995      		icall
 1317               	.LVL134:
 1318 0066 8130      		cpi r24,lo8(1)
 1319 0068 01F4      		brne .L102
  59:../../LUFA/Drivers/USB/LowLevel/Template/Template_Endpoint_RW.c **** 			#endif
 1320               		.loc 3 59 0
 1321 006a 15E0      		ldi r17,lo8(5)
 1322 006c 00C0      		rjmp .L96
 1323               	.L99:
 1324               	.LBB334:
  67:../../LUFA/Drivers/USB/LowLevel/Template/Template_Endpoint_RW.c **** 			Length--;
 1325               		.loc 3 67 0
 1326 006e CE01      		movw r24,r28
 1327 0070 0197      		sbiw r24,1
 1328               	.LVL135:
 1329 0072 FE01      		movw r30,r28
 1330               	/* #APP */
 1331               	 ;  67 "../../LUFA/Drivers/USB/LowLevel/Template/Template_Endpoint_RW.c" 1
 1332 0074 C491      		lpm r28, Z
 1333               		
 1334               	 ;  0 "" 2
 1335               	.LVL136:
 1336               	/* #NOAPP */
 1337               	.LBE334:
 1338               	.LBB335:
 1339               	.LBB336:
 562:../../LUFA/Drivers/USB/LowLevel/Endpoint.h **** 			}
 1340               		.loc 2 562 0
 1341 0076 C093 F100 		sts 241,r28
 1342               	.LVL137:
 1343               	.LBE336:
 1344               	.LBE335:
  68:../../LUFA/Drivers/USB/LowLevel/Template/Template_Endpoint_RW.c **** 		}
 1345               		.loc 3 68 0
 1346 007a F1E0      		ldi r31,1
 1347 007c EF1A      		sub r14,r31
 1348 007e F108      		sbc r15,__zero_reg__
 1349               	.LVL138:
 1350               	.LBB337:
  67:../../LUFA/Drivers/USB/LowLevel/Template/Template_Endpoint_RW.c **** 			Length--;
 1351               		.loc 3 67 0
 1352 0080 EC01      		movw r28,r24
 1353               	.LVL139:
 1354 0082 00C0      		rjmp .L98
 1355               	.LBE337:
 1356               		.cfi_endproc
 1357               	.LFE75:
 1359               		.section	.text.Endpoint_Read_Stream_LE,"ax",@progbits
 1360               	.global	Endpoint_Read_Stream_LE
 1362               	Endpoint_Read_Stream_LE:
 1363               	.LFB76:
   4:../../LUFA/Drivers/USB/LowLevel/Template/Template_Endpoint_RW.c **** 	uint8_t* DataStream = ((uint8_t*)Buffer + TEMPLATE_BUFFER_OFFSET(Length));
 1364               		.loc 3 4 0
 1365               		.cfi_startproc
 1366               	.LVL140:
 1367 0000 CF92      		push r12
 1368               	.LCFI51:
 1369               		.cfi_def_cfa_offset 3
 1370               		.cfi_offset 12, -2
 1371 0002 DF92      		push r13
 1372               	.LCFI52:
 1373               		.cfi_def_cfa_offset 4
 1374               		.cfi_offset 13, -3
 1375 0004 EF92      		push r14
 1376               	.LCFI53:
 1377               		.cfi_def_cfa_offset 5
 1378               		.cfi_offset 14, -4
 1379 0006 FF92      		push r15
 1380               	.LCFI54:
 1381               		.cfi_def_cfa_offset 6
 1382               		.cfi_offset 15, -5
 1383 0008 0F93      		push r16
 1384               	.LCFI55:
 1385               		.cfi_def_cfa_offset 7
 1386               		.cfi_offset 16, -6
 1387 000a 1F93      		push r17
 1388               	.LCFI56:
 1389               		.cfi_def_cfa_offset 8
 1390               		.cfi_offset 17, -7
 1391 000c CF93      		push r28
 1392               	.LCFI57:
 1393               		.cfi_def_cfa_offset 9
 1394               		.cfi_offset 28, -8
 1395               	/* prologue: function */
 1396               	/* frame size = 0 */
 1397               	/* stack size = 7 */
 1398               	.L__stack_usage = 7
 1399 000e 7C01      		movw r14,r24
 1400 0010 8B01      		movw r16,r22
 1401 0012 6A01      		movw r12,r20
 1402               	.LVL141:
   8:../../LUFA/Drivers/USB/LowLevel/Template/Template_Endpoint_RW.c **** 	  return ErrorCode;
 1403               		.loc 3 8 0
 1404 0014 0E94 0000 		call Endpoint_WaitUntilReady
 1405               	.LVL142:
 1406 0018 C82F      		mov r28,r24
 1407               	.LVL143:
 1408 001a 8823      		tst r24
 1409 001c 01F0      		breq .L108
 1410               	.LVL144:
 1411               	.L106:
 1412               		.loc 3 73 0
 1413 001e 8C2F      		mov r24,r28
 1414               	/* epilogue start */
 1415 0020 CF91      		pop r28
 1416 0022 1F91      		pop r17
 1417 0024 0F91      		pop r16
 1418               	.LVL145:
 1419 0026 FF90      		pop r15
 1420 0028 EF90      		pop r14
 1421               	.LVL146:
 1422 002a DF90      		pop r13
 1423 002c CF90      		pop r12
 1424               	.LVL147:
 1425 002e 0895      		ret
 1426               	.LVL148:
 1427               	.L110:
  58:../../LUFA/Drivers/USB/LowLevel/Template/Template_Endpoint_RW.c **** 			  return ENDPOINT_RWSTREAM_CallbackAborted;
 1428               		.loc 3 58 0 discriminator 1
 1429 0030 F601      		movw r30,r12
 1430 0032 0995      		icall
 1431               	.LVL149:
 1432 0034 8130      		cpi r24,lo8(1)
 1433 0036 01F4      		brne .L112
  59:../../LUFA/Drivers/USB/LowLevel/Template/Template_Endpoint_RW.c **** 			#endif
 1434               		.loc 3 59 0
 1435 0038 C5E0      		ldi r28,lo8(5)
 1436 003a 00C0      		rjmp .L106
 1437               	.L109:
 1438               	.LVL150:
 1439               	.LBB338:
 1440               	.LBB339:
 550:../../LUFA/Drivers/USB/LowLevel/Endpoint.h **** 			}
 1441               		.loc 2 550 0
 1442 003c 8091 F100 		lds r24,241
 1443               	.LBE339:
 1444               	.LBE338:
  67:../../LUFA/Drivers/USB/LowLevel/Template/Template_Endpoint_RW.c **** 			Length--;
 1445               		.loc 3 67 0
 1446 0040 F701      		movw r30,r14
 1447 0042 8083      		st Z,r24
  68:../../LUFA/Drivers/USB/LowLevel/Template/Template_Endpoint_RW.c **** 		}
 1448               		.loc 3 68 0
 1449 0044 0150      		subi r16,1
 1450 0046 1109      		sbc r17,__zero_reg__
 1451               	.LVL151:
  67:../../LUFA/Drivers/USB/LowLevel/Template/Template_Endpoint_RW.c **** 			Length--;
 1452               		.loc 3 67 0
 1453 0048 C701      		movw r24,r14
 1454 004a 0196      		adiw r24,1
 1455               	.LVL152:
 1456 004c 7C01      		movw r14,r24
 1457               	.LVL153:
 1458               	.L108:
  51:../../LUFA/Drivers/USB/LowLevel/Template/Template_Endpoint_RW.c **** 	{
 1459               		.loc 3 51 0
 1460 004e 0115      		cp r16,__zero_reg__
 1461 0050 1105      		cpc r17,__zero_reg__
 1462 0052 01F0      		breq .L106
 1463               	.LBB340:
 1464               	.LBB341:
 358:../../LUFA/Drivers/USB/LowLevel/Endpoint.h **** 			}
 1465               		.loc 2 358 0
 1466 0054 8091 E800 		lds r24,232
 1467               	.LBE341:
 1468               	.LBE340:
  53:../../LUFA/Drivers/USB/LowLevel/Template/Template_Endpoint_RW.c **** 		{
 1469               		.loc 3 53 0
 1470 0058 85FD      		sbrc r24,5
 1471 005a 00C0      		rjmp .L109
 1472               	.LBB342:
 1473               	.LBB343:
 469:../../LUFA/Drivers/USB/LowLevel/Endpoint.h **** 				#else
 1474               		.loc 2 469 0
 1475 005c 8091 E800 		lds r24,232
 1476 0060 8B77      		andi r24,lo8(123)
 1477 0062 8093 E800 		sts 232,r24
 1478               	.LBE343:
 1479               	.LBE342:
  58:../../LUFA/Drivers/USB/LowLevel/Template/Template_Endpoint_RW.c **** 			  return ENDPOINT_RWSTREAM_CallbackAborted;
 1480               		.loc 3 58 0
 1481 0066 C114      		cp r12,__zero_reg__
 1482 0068 D104      		cpc r13,__zero_reg__
 1483 006a 01F4      		brne .L110
 1484               	.L112:
  62:../../LUFA/Drivers/USB/LowLevel/Template/Template_Endpoint_RW.c **** 			  return ErrorCode;
 1485               		.loc 3 62 0
 1486 006c 0E94 0000 		call Endpoint_WaitUntilReady
 1487               	.LVL154:
 1488 0070 8823      		tst r24
 1489 0072 01F0      		breq .L108
 1490 0074 C82F      		mov r28,r24
 1491 0076 00C0      		rjmp .L106
 1492               		.cfi_endproc
 1493               	.LFE76:
 1495               		.section	.text.Endpoint_Read_EStream_LE,"ax",@progbits
 1496               	.global	Endpoint_Read_EStream_LE
 1498               	Endpoint_Read_EStream_LE:
 1499               	.LFB77:
   4:../../LUFA/Drivers/USB/LowLevel/Template/Template_Endpoint_RW.c **** 	uint8_t* DataStream = ((uint8_t*)Buffer + TEMPLATE_BUFFER_OFFSET(Length));
 1500               		.loc 3 4 0
 1501               		.cfi_startproc
 1502               	.LVL155:
 1503 0000 AF92      		push r10
 1504               	.LCFI58:
 1505               		.cfi_def_cfa_offset 3
 1506               		.cfi_offset 10, -2
 1507 0002 BF92      		push r11
 1508               	.LCFI59:
 1509               		.cfi_def_cfa_offset 4
 1510               		.cfi_offset 11, -3
 1511 0004 CF92      		push r12
 1512               	.LCFI60:
 1513               		.cfi_def_cfa_offset 5
 1514               		.cfi_offset 12, -4
 1515 0006 DF92      		push r13
 1516               	.LCFI61:
 1517               		.cfi_def_cfa_offset 6
 1518               		.cfi_offset 13, -5
 1519 0008 EF92      		push r14
 1520               	.LCFI62:
 1521               		.cfi_def_cfa_offset 7
 1522               		.cfi_offset 14, -6
 1523 000a FF92      		push r15
 1524               	.LCFI63:
 1525               		.cfi_def_cfa_offset 8
 1526               		.cfi_offset 15, -7
 1527 000c 0F93      		push r16
 1528               	.LCFI64:
 1529               		.cfi_def_cfa_offset 9
 1530               		.cfi_offset 16, -8
 1531 000e 1F93      		push r17
 1532               	.LCFI65:
 1533               		.cfi_def_cfa_offset 10
 1534               		.cfi_offset 17, -9
 1535 0010 CF93      		push r28
 1536               	.LCFI66:
 1537               		.cfi_def_cfa_offset 11
 1538               		.cfi_offset 28, -10
 1539               	/* prologue: function */
 1540               	/* frame size = 0 */
 1541               	/* stack size = 9 */
 1542               	.L__stack_usage = 9
 1543 0012 7C01      		movw r14,r24
 1544 0014 8B01      		movw r16,r22
 1545 0016 6A01      		movw r12,r20
 1546               	.LVL156:
   8:../../LUFA/Drivers/USB/LowLevel/Template/Template_Endpoint_RW.c **** 	  return ErrorCode;
 1547               		.loc 3 8 0
 1548 0018 0E94 0000 		call Endpoint_WaitUntilReady
 1549               	.LVL157:
 1550 001c C82F      		mov r28,r24
 1551               	.LVL158:
 1552 001e 8823      		tst r24
 1553 0020 01F0      		breq .L118
 1554               	.LVL159:
 1555               	.L116:
 1556               		.loc 3 73 0
 1557 0022 8C2F      		mov r24,r28
 1558               	/* epilogue start */
 1559 0024 CF91      		pop r28
 1560 0026 1F91      		pop r17
 1561 0028 0F91      		pop r16
 1562               	.LVL160:
 1563 002a FF90      		pop r15
 1564 002c EF90      		pop r14
 1565               	.LVL161:
 1566 002e DF90      		pop r13
 1567 0030 CF90      		pop r12
 1568               	.LVL162:
 1569 0032 BF90      		pop r11
 1570 0034 AF90      		pop r10
 1571 0036 0895      		ret
 1572               	.LVL163:
 1573               	.L120:
  58:../../LUFA/Drivers/USB/LowLevel/Template/Template_Endpoint_RW.c **** 			  return ENDPOINT_RWSTREAM_CallbackAborted;
 1574               		.loc 3 58 0 discriminator 1
 1575 0038 F601      		movw r30,r12
 1576 003a 0995      		icall
 1577               	.LVL164:
 1578 003c 8130      		cpi r24,lo8(1)
 1579 003e 01F4      		brne .L122
  59:../../LUFA/Drivers/USB/LowLevel/Template/Template_Endpoint_RW.c **** 			#endif
 1580               		.loc 3 59 0
 1581 0040 C5E0      		ldi r28,lo8(5)
 1582 0042 00C0      		rjmp .L116
 1583               	.L119:
 1584               	.LBB344:
 1585               	.LBB345:
 550:../../LUFA/Drivers/USB/LowLevel/Endpoint.h **** 			}
 1586               		.loc 2 550 0
 1587 0044 6091 F100 		lds r22,241
 1588               	.LBE345:
 1589               	.LBE344:
  67:../../LUFA/Drivers/USB/LowLevel/Template/Template_Endpoint_RW.c **** 			Length--;
 1590               		.loc 3 67 0
 1591 0048 5701      		movw r10,r14
 1592 004a FFEF      		ldi r31,-1
 1593 004c AF1A      		sub r10,r31
 1594 004e BF0A      		sbc r11,r31
 1595               	.LVL165:
 1596 0050 C701      		movw r24,r14
 1597 0052 0E94 0000 		call eeprom_update_byte
 1598               	.LVL166:
  68:../../LUFA/Drivers/USB/LowLevel/Template/Template_Endpoint_RW.c **** 		}
 1599               		.loc 3 68 0
 1600 0056 0150      		subi r16,1
 1601 0058 1109      		sbc r17,__zero_reg__
 1602               	.LVL167:
  67:../../LUFA/Drivers/USB/LowLevel/Template/Template_Endpoint_RW.c **** 			Length--;
 1603               		.loc 3 67 0
 1604 005a 7501      		movw r14,r10
 1605               	.LVL168:
 1606               	.L118:
  51:../../LUFA/Drivers/USB/LowLevel/Template/Template_Endpoint_RW.c **** 	{
 1607               		.loc 3 51 0
 1608 005c 0115      		cp r16,__zero_reg__
 1609 005e 1105      		cpc r17,__zero_reg__
 1610 0060 01F0      		breq .L116
 1611               	.LBB346:
 1612               	.LBB347:
 358:../../LUFA/Drivers/USB/LowLevel/Endpoint.h **** 			}
 1613               		.loc 2 358 0
 1614 0062 8091 E800 		lds r24,232
 1615               	.LBE347:
 1616               	.LBE346:
  53:../../LUFA/Drivers/USB/LowLevel/Template/Template_Endpoint_RW.c **** 		{
 1617               		.loc 3 53 0
 1618 0066 85FD      		sbrc r24,5
 1619 0068 00C0      		rjmp .L119
 1620               	.LBB348:
 1621               	.LBB349:
 469:../../LUFA/Drivers/USB/LowLevel/Endpoint.h **** 				#else
 1622               		.loc 2 469 0
 1623 006a 8091 E800 		lds r24,232
 1624 006e 8B77      		andi r24,lo8(123)
 1625 0070 8093 E800 		sts 232,r24
 1626               	.LBE349:
 1627               	.LBE348:
  58:../../LUFA/Drivers/USB/LowLevel/Template/Template_Endpoint_RW.c **** 			  return ENDPOINT_RWSTREAM_CallbackAborted;
 1628               		.loc 3 58 0
 1629 0074 C114      		cp r12,__zero_reg__
 1630 0076 D104      		cpc r13,__zero_reg__
 1631 0078 01F4      		brne .L120
 1632               	.L122:
  62:../../LUFA/Drivers/USB/LowLevel/Template/Template_Endpoint_RW.c **** 			  return ErrorCode;
 1633               		.loc 3 62 0
 1634 007a 0E94 0000 		call Endpoint_WaitUntilReady
 1635               	.LVL169:
 1636 007e 8823      		tst r24
 1637 0080 01F0      		breq .L118
 1638 0082 C82F      		mov r28,r24
 1639 0084 00C0      		rjmp .L116
 1640               		.cfi_endproc
 1641               	.LFE77:
 1643               		.section	.text.Endpoint_Read_Stream_BE,"ax",@progbits
 1644               	.global	Endpoint_Read_Stream_BE
 1646               	Endpoint_Read_Stream_BE:
 1647               	.LFB78:
   4:../../LUFA/Drivers/USB/LowLevel/Template/Template_Endpoint_RW.c **** 	uint8_t* DataStream = ((uint8_t*)Buffer + TEMPLATE_BUFFER_OFFSET(Length));
 1648               		.loc 3 4 0
 1649               		.cfi_startproc
 1650               	.LVL170:
 1651 0000 CF92      		push r12
 1652               	.LCFI67:
 1653               		.cfi_def_cfa_offset 3
 1654               		.cfi_offset 12, -2
 1655 0002 DF92      		push r13
 1656               	.LCFI68:
 1657               		.cfi_def_cfa_offset 4
 1658               		.cfi_offset 13, -3
 1659 0004 EF92      		push r14
 1660               	.LCFI69:
 1661               		.cfi_def_cfa_offset 5
 1662               		.cfi_offset 14, -4
 1663 0006 FF92      		push r15
 1664               	.LCFI70:
 1665               		.cfi_def_cfa_offset 6
 1666               		.cfi_offset 15, -5
 1667 0008 1F93      		push r17
 1668               	.LCFI71:
 1669               		.cfi_def_cfa_offset 7
 1670               		.cfi_offset 17, -6
 1671 000a CF93      		push r28
 1672               	.LCFI72:
 1673               		.cfi_def_cfa_offset 8
 1674               		.cfi_offset 28, -7
 1675 000c DF93      		push r29
 1676               	.LCFI73:
 1677               		.cfi_def_cfa_offset 9
 1678               		.cfi_offset 29, -8
 1679               	/* prologue: function */
 1680               	/* frame size = 0 */
 1681               	/* stack size = 7 */
 1682               	.L__stack_usage = 7
 1683 000e EC01      		movw r28,r24
 1684 0010 7B01      		movw r14,r22
 1685 0012 6A01      		movw r12,r20
 1686               	.LVL171:
   8:../../LUFA/Drivers/USB/LowLevel/Template/Template_Endpoint_RW.c **** 	  return ErrorCode;
 1687               		.loc 3 8 0
 1688 0014 0E94 0000 		call Endpoint_WaitUntilReady
 1689               	.LVL172:
 1690 0018 182F      		mov r17,r24
 1691               	.LVL173:
 1692 001a 8111      		cpse r24,__zero_reg__
 1693 001c 00C0      		rjmp .L126
   5:../../LUFA/Drivers/USB/LowLevel/Template/Template_Endpoint_RW.c **** 	uint8_t  ErrorCode;
 1694               		.loc 3 5 0
 1695 001e C701      		movw r24,r14
 1696 0020 0197      		sbiw r24,1
 1697               	.LVL174:
 1698 0022 C80F      		add r28,r24
 1699 0024 D91F      		adc r29,r25
 1700               	.LVL175:
 1701               	.L128:
  51:../../LUFA/Drivers/USB/LowLevel/Template/Template_Endpoint_RW.c **** 	{
 1702               		.loc 3 51 0
 1703 0026 E114      		cp r14,__zero_reg__
 1704 0028 F104      		cpc r15,__zero_reg__
 1705 002a 01F4      		brne .L133
 1706               	.LVL176:
 1707               	.L126:
 1708               		.loc 3 73 0
 1709 002c 812F      		mov r24,r17
 1710               	/* epilogue start */
 1711 002e DF91      		pop r29
 1712 0030 CF91      		pop r28
 1713 0032 1F91      		pop r17
 1714 0034 FF90      		pop r15
 1715 0036 EF90      		pop r14
 1716               	.LVL177:
 1717 0038 DF90      		pop r13
 1718 003a CF90      		pop r12
 1719               	.LVL178:
 1720 003c 0895      		ret
 1721               	.LVL179:
 1722               	.L133:
 1723               	.LBB350:
 1724               	.LBB351:
 358:../../LUFA/Drivers/USB/LowLevel/Endpoint.h **** 			}
 1725               		.loc 2 358 0
 1726 003e 8091 E800 		lds r24,232
 1727               	.LBE351:
 1728               	.LBE350:
  53:../../LUFA/Drivers/USB/LowLevel/Template/Template_Endpoint_RW.c **** 		{
 1729               		.loc 3 53 0
 1730 0042 85FD      		sbrc r24,5
 1731 0044 00C0      		rjmp .L129
 1732               	.LBB352:
 1733               	.LBB353:
 469:../../LUFA/Drivers/USB/LowLevel/Endpoint.h **** 				#else
 1734               		.loc 2 469 0
 1735 0046 8091 E800 		lds r24,232
 1736 004a 8B77      		andi r24,lo8(123)
 1737 004c 8093 E800 		sts 232,r24
 1738               	.LBE353:
 1739               	.LBE352:
  58:../../LUFA/Drivers/USB/LowLevel/Template/Template_Endpoint_RW.c **** 			  return ENDPOINT_RWSTREAM_CallbackAborted;
 1740               		.loc 3 58 0
 1741 0050 C114      		cp r12,__zero_reg__
 1742 0052 D104      		cpc r13,__zero_reg__
 1743 0054 01F4      		brne .L130
 1744               	.L132:
  62:../../LUFA/Drivers/USB/LowLevel/Template/Template_Endpoint_RW.c **** 			  return ErrorCode;
 1745               		.loc 3 62 0
 1746 0056 0E94 0000 		call Endpoint_WaitUntilReady
 1747               	.LVL180:
 1748 005a 8823      		tst r24
 1749 005c 01F0      		breq .L128
 1750 005e 182F      		mov r17,r24
 1751 0060 00C0      		rjmp .L126
 1752               	.LVL181:
 1753               	.L130:
  58:../../LUFA/Drivers/USB/LowLevel/Template/Template_Endpoint_RW.c **** 			  return ENDPOINT_RWSTREAM_CallbackAborted;
 1754               		.loc 3 58 0 discriminator 1
 1755 0062 F601      		movw r30,r12
 1756 0064 0995      		icall
 1757               	.LVL182:
 1758 0066 8130      		cpi r24,lo8(1)
 1759 0068 01F4      		brne .L132
  59:../../LUFA/Drivers/USB/LowLevel/Template/Template_Endpoint_RW.c **** 			#endif
 1760               		.loc 3 59 0
 1761 006a 15E0      		ldi r17,lo8(5)
 1762 006c 00C0      		rjmp .L126
 1763               	.L129:
 1764               	.LVL183:
 1765               	.LBB354:
 1766               	.LBB355:
 550:../../LUFA/Drivers/USB/LowLevel/Endpoint.h **** 			}
 1767               		.loc 2 550 0
 1768 006e 8091 F100 		lds r24,241
 1769               	.LBE355:
 1770               	.LBE354:
  67:../../LUFA/Drivers/USB/LowLevel/Template/Template_Endpoint_RW.c **** 			Length--;
 1771               		.loc 3 67 0
 1772 0072 8883      		st Y,r24
  68:../../LUFA/Drivers/USB/LowLevel/Template/Template_Endpoint_RW.c **** 		}
 1773               		.loc 3 68 0
 1774 0074 F1E0      		ldi r31,1
 1775 0076 EF1A      		sub r14,r31
 1776 0078 F108      		sbc r15,__zero_reg__
 1777               	.LVL184:
  67:../../LUFA/Drivers/USB/LowLevel/Template/Template_Endpoint_RW.c **** 			Length--;
 1778               		.loc 3 67 0
 1779 007a 2197      		sbiw r28,1
 1780               	.LVL185:
 1781 007c 00C0      		rjmp .L128
 1782               		.cfi_endproc
 1783               	.LFE78:
 1785               		.section	.text.Endpoint_Read_EStream_BE,"ax",@progbits
 1786               	.global	Endpoint_Read_EStream_BE
 1788               	Endpoint_Read_EStream_BE:
 1789               	.LFB79:
   4:../../LUFA/Drivers/USB/LowLevel/Template/Template_Endpoint_RW.c **** 	uint8_t* DataStream = ((uint8_t*)Buffer + TEMPLATE_BUFFER_OFFSET(Length));
 1790               		.loc 3 4 0
 1791               		.cfi_startproc
 1792               	.LVL186:
 1793 0000 AF92      		push r10
 1794               	.LCFI74:
 1795               		.cfi_def_cfa_offset 3
 1796               		.cfi_offset 10, -2
 1797 0002 BF92      		push r11
 1798               	.LCFI75:
 1799               		.cfi_def_cfa_offset 4
 1800               		.cfi_offset 11, -3
 1801 0004 CF92      		push r12
 1802               	.LCFI76:
 1803               		.cfi_def_cfa_offset 5
 1804               		.cfi_offset 12, -4
 1805 0006 DF92      		push r13
 1806               	.LCFI77:
 1807               		.cfi_def_cfa_offset 6
 1808               		.cfi_offset 13, -5
 1809 0008 EF92      		push r14
 1810               	.LCFI78:
 1811               		.cfi_def_cfa_offset 7
 1812               		.cfi_offset 14, -6
 1813 000a FF92      		push r15
 1814               	.LCFI79:
 1815               		.cfi_def_cfa_offset 8
 1816               		.cfi_offset 15, -7
 1817 000c 1F93      		push r17
 1818               	.LCFI80:
 1819               		.cfi_def_cfa_offset 9
 1820               		.cfi_offset 17, -8
 1821 000e CF93      		push r28
 1822               	.LCFI81:
 1823               		.cfi_def_cfa_offset 10
 1824               		.cfi_offset 28, -9
 1825 0010 DF93      		push r29
 1826               	.LCFI82:
 1827               		.cfi_def_cfa_offset 11
 1828               		.cfi_offset 29, -10
 1829               	/* prologue: function */
 1830               	/* frame size = 0 */
 1831               	/* stack size = 9 */
 1832               	.L__stack_usage = 9
 1833 0012 EC01      		movw r28,r24
 1834 0014 7B01      		movw r14,r22
 1835 0016 6A01      		movw r12,r20
 1836               	.LVL187:
   8:../../LUFA/Drivers/USB/LowLevel/Template/Template_Endpoint_RW.c **** 	  return ErrorCode;
 1837               		.loc 3 8 0
 1838 0018 0E94 0000 		call Endpoint_WaitUntilReady
 1839               	.LVL188:
 1840 001c 182F      		mov r17,r24
 1841               	.LVL189:
 1842 001e 8111      		cpse r24,__zero_reg__
 1843 0020 00C0      		rjmp .L136
   5:../../LUFA/Drivers/USB/LowLevel/Template/Template_Endpoint_RW.c **** 	uint8_t  ErrorCode;
 1844               		.loc 3 5 0
 1845 0022 C701      		movw r24,r14
 1846 0024 0197      		sbiw r24,1
 1847               	.LVL190:
 1848 0026 C80F      		add r28,r24
 1849 0028 D91F      		adc r29,r25
 1850               	.LVL191:
 1851               	.L138:
  51:../../LUFA/Drivers/USB/LowLevel/Template/Template_Endpoint_RW.c **** 	{
 1852               		.loc 3 51 0
 1853 002a E114      		cp r14,__zero_reg__
 1854 002c F104      		cpc r15,__zero_reg__
 1855 002e 01F4      		brne .L143
 1856               	.LVL192:
 1857               	.L136:
 1858               		.loc 3 73 0
 1859 0030 812F      		mov r24,r17
 1860               	/* epilogue start */
 1861 0032 DF91      		pop r29
 1862 0034 CF91      		pop r28
 1863 0036 1F91      		pop r17
 1864 0038 FF90      		pop r15
 1865 003a EF90      		pop r14
 1866               	.LVL193:
 1867 003c DF90      		pop r13
 1868 003e CF90      		pop r12
 1869               	.LVL194:
 1870 0040 BF90      		pop r11
 1871 0042 AF90      		pop r10
 1872 0044 0895      		ret
 1873               	.LVL195:
 1874               	.L143:
 1875               	.LBB356:
 1876               	.LBB357:
 358:../../LUFA/Drivers/USB/LowLevel/Endpoint.h **** 			}
 1877               		.loc 2 358 0
 1878 0046 8091 E800 		lds r24,232
 1879               	.LBE357:
 1880               	.LBE356:
  53:../../LUFA/Drivers/USB/LowLevel/Template/Template_Endpoint_RW.c **** 		{
 1881               		.loc 3 53 0
 1882 004a 85FD      		sbrc r24,5
 1883 004c 00C0      		rjmp .L139
 1884               	.LBB358:
 1885               	.LBB359:
 469:../../LUFA/Drivers/USB/LowLevel/Endpoint.h **** 				#else
 1886               		.loc 2 469 0
 1887 004e 8091 E800 		lds r24,232
 1888 0052 8B77      		andi r24,lo8(123)
 1889 0054 8093 E800 		sts 232,r24
 1890               	.LBE359:
 1891               	.LBE358:
  58:../../LUFA/Drivers/USB/LowLevel/Template/Template_Endpoint_RW.c **** 			  return ENDPOINT_RWSTREAM_CallbackAborted;
 1892               		.loc 3 58 0
 1893 0058 C114      		cp r12,__zero_reg__
 1894 005a D104      		cpc r13,__zero_reg__
 1895 005c 01F4      		brne .L140
 1896               	.L142:
  62:../../LUFA/Drivers/USB/LowLevel/Template/Template_Endpoint_RW.c **** 			  return ErrorCode;
 1897               		.loc 3 62 0
 1898 005e 0E94 0000 		call Endpoint_WaitUntilReady
 1899               	.LVL196:
 1900 0062 8823      		tst r24
 1901 0064 01F0      		breq .L138
 1902 0066 182F      		mov r17,r24
 1903 0068 00C0      		rjmp .L136
 1904               	.LVL197:
 1905               	.L140:
  58:../../LUFA/Drivers/USB/LowLevel/Template/Template_Endpoint_RW.c **** 			  return ENDPOINT_RWSTREAM_CallbackAborted;
 1906               		.loc 3 58 0 discriminator 1
 1907 006a F601      		movw r30,r12
 1908 006c 0995      		icall
 1909               	.LVL198:
 1910 006e 8130      		cpi r24,lo8(1)
 1911 0070 01F4      		brne .L142
  59:../../LUFA/Drivers/USB/LowLevel/Template/Template_Endpoint_RW.c **** 			#endif
 1912               		.loc 3 59 0
 1913 0072 15E0      		ldi r17,lo8(5)
 1914 0074 00C0      		rjmp .L136
 1915               	.L139:
 1916               	.LBB360:
 1917               	.LBB361:
 550:../../LUFA/Drivers/USB/LowLevel/Endpoint.h **** 			}
 1918               		.loc 2 550 0
 1919 0076 6091 F100 		lds r22,241
 1920               	.LBE361:
 1921               	.LBE360:
  67:../../LUFA/Drivers/USB/LowLevel/Template/Template_Endpoint_RW.c **** 			Length--;
 1922               		.loc 3 67 0
 1923 007a 5E01      		movw r10,r28
 1924 007c F1E0      		ldi r31,1
 1925 007e AF1A      		sub r10,r31
 1926 0080 B108      		sbc r11,__zero_reg__
 1927               	.LVL199:
 1928 0082 CE01      		movw r24,r28
 1929 0084 0E94 0000 		call eeprom_update_byte
 1930               	.LVL200:
  68:../../LUFA/Drivers/USB/LowLevel/Template/Template_Endpoint_RW.c **** 		}
 1931               		.loc 3 68 0
 1932 0088 81E0      		ldi r24,1
 1933 008a E81A      		sub r14,r24
 1934 008c F108      		sbc r15,__zero_reg__
 1935               	.LVL201:
  67:../../LUFA/Drivers/USB/LowLevel/Template/Template_Endpoint_RW.c **** 			Length--;
 1936               		.loc 3 67 0
 1937 008e E501      		movw r28,r10
 1938 0090 00C0      		rjmp .L138
 1939               		.cfi_endproc
 1940               	.LFE79:
 1942               		.section	.text.Endpoint_Write_Control_Stream_LE,"ax",@progbits
 1943               	.global	Endpoint_Write_Control_Stream_LE
 1945               	Endpoint_Write_Control_Stream_LE:
 1946               	.LFB80:
 1947               		.file 4 "../../LUFA/Drivers/USB/LowLevel/Template/Template_Endpoint_Control_W.c"
   1:../../LUFA/Drivers/USB/LowLevel/Template/Template_Endpoint_Control_W.c **** uint8_t TEMPLATE_FUNC_NAME (const void* Buffer,
   2:../../LUFA/Drivers/USB/LowLevel/Template/Template_Endpoint_Control_W.c ****                             uint16_t Length)
   3:../../LUFA/Drivers/USB/LowLevel/Template/Template_Endpoint_Control_W.c **** {
 1948               		.loc 4 3 0
 1949               		.cfi_startproc
 1950               	.LVL202:
 1951               	/* prologue: function */
 1952               	/* frame size = 0 */
 1953               	/* stack size = 0 */
 1954               	.L__stack_usage = 0
   4:../../LUFA/Drivers/USB/LowLevel/Template/Template_Endpoint_Control_W.c **** 	uint8_t* DataStream     = ((uint8_t*)Buffer + TEMPLATE_BUFFER_OFFSET(Length));
   5:../../LUFA/Drivers/USB/LowLevel/Template/Template_Endpoint_Control_W.c **** 	bool     LastPacketFull = false;
   6:../../LUFA/Drivers/USB/LowLevel/Template/Template_Endpoint_Control_W.c **** 	
   7:../../LUFA/Drivers/USB/LowLevel/Template/Template_Endpoint_Control_W.c **** 	if (Length > USB_ControlRequest.wLength)
 1955               		.loc 4 7 0
 1956 0000 2091 0000 		lds r18,USB_ControlRequest+6
 1957 0004 3091 0000 		lds r19,USB_ControlRequest+6+1
 1958 0008 2617      		cp r18,r22
 1959 000a 3707      		cpc r19,r23
 1960 000c 00F0      		brlo .L158
   8:../../LUFA/Drivers/USB/LowLevel/Template/Template_Endpoint_Control_W.c **** 	  Length = USB_ControlRequest.wLength;
   9:../../LUFA/Drivers/USB/LowLevel/Template/Template_Endpoint_Control_W.c **** 	else if (!(Length))
 1961               		.loc 4 9 0
 1962 000e 6115      		cp r22,__zero_reg__
 1963 0010 7105      		cpc r23,__zero_reg__
 1964 0012 01F4      		brne .L147
 1965               	.LBB362:
 1966               	.LBB363:
 454:../../LUFA/Drivers/USB/LowLevel/Endpoint.h **** 				#else
 1967               		.loc 2 454 0
 1968 0014 2091 E800 		lds r18,232
 1969 0018 2E77      		andi r18,lo8(126)
 1970 001a 2093 E800 		sts 232,r18
 1971               	.LVL203:
 1972               	.L147:
 1973               	.LBE363:
 1974               	.LBE362:
 1975 001e 30E0      		ldi r19,0
 1976               	.LVL204:
 1977               	.L151:
  10:../../LUFA/Drivers/USB/LowLevel/Template/Template_Endpoint_Control_W.c **** 	  Endpoint_ClearIN();
  11:../../LUFA/Drivers/USB/LowLevel/Template/Template_Endpoint_Control_W.c **** 
  12:../../LUFA/Drivers/USB/LowLevel/Template/Template_Endpoint_Control_W.c **** 	while (Length || LastPacketFull)
 1978               		.loc 4 12 0
 1979 0020 6115      		cp r22,__zero_reg__
 1980 0022 7105      		cpc r23,__zero_reg__
 1981 0024 01F4      		brne .L156
 1982               		.loc 4 12 0 is_stmt 0 discriminator 1
 1983 0026 3111      		cpse r19,__zero_reg__
 1984 0028 00C0      		rjmp .L156
 1985               	.LVL205:
 1986               	.L169:
 1987               	.LBB364:
 1988               	.LBB365:
 417:../../LUFA/Drivers/USB/LowLevel/Endpoint.h **** 			}
 1989               		.loc 2 417 0 is_stmt 1
 1990 002a 8091 E800 		lds r24,232
 1991               	.LBE365:
 1992               	.LBE364:
  13:../../LUFA/Drivers/USB/LowLevel/Template/Template_Endpoint_Control_W.c **** 	{
  14:../../LUFA/Drivers/USB/LowLevel/Template/Template_Endpoint_Control_W.c **** 		if (Endpoint_IsSETUPReceived())
  15:../../LUFA/Drivers/USB/LowLevel/Template/Template_Endpoint_Control_W.c **** 		  return ENDPOINT_RWCSTREAM_HostAborted;
  16:../../LUFA/Drivers/USB/LowLevel/Template/Template_Endpoint_Control_W.c **** 
  17:../../LUFA/Drivers/USB/LowLevel/Template/Template_Endpoint_Control_W.c **** 		if (Endpoint_IsOUTReceived())
  18:../../LUFA/Drivers/USB/LowLevel/Template/Template_Endpoint_Control_W.c **** 		  break;
  19:../../LUFA/Drivers/USB/LowLevel/Template/Template_Endpoint_Control_W.c **** 		
  20:../../LUFA/Drivers/USB/LowLevel/Template/Template_Endpoint_Control_W.c **** 		if (USB_DeviceState == DEVICE_STATE_Unattached)
  21:../../LUFA/Drivers/USB/LowLevel/Template/Template_Endpoint_Control_W.c **** 		  return ENDPOINT_RWCSTREAM_DeviceDisconnected;
  22:../../LUFA/Drivers/USB/LowLevel/Template/Template_Endpoint_Control_W.c **** 		else if (USB_DeviceState == DEVICE_STATE_Suspended)
  23:../../LUFA/Drivers/USB/LowLevel/Template/Template_Endpoint_Control_W.c **** 		  return ENDPOINT_RWCSTREAM_BusSuspended;
  24:../../LUFA/Drivers/USB/LowLevel/Template/Template_Endpoint_Control_W.c **** 		  
  25:../../LUFA/Drivers/USB/LowLevel/Template/Template_Endpoint_Control_W.c **** 		if (Endpoint_IsINReady())
  26:../../LUFA/Drivers/USB/LowLevel/Template/Template_Endpoint_Control_W.c **** 		{
  27:../../LUFA/Drivers/USB/LowLevel/Template/Template_Endpoint_Control_W.c **** 			uint8_t BytesInEndpoint = Endpoint_BytesInEndpoint();
  28:../../LUFA/Drivers/USB/LowLevel/Template/Template_Endpoint_Control_W.c **** 		
  29:../../LUFA/Drivers/USB/LowLevel/Template/Template_Endpoint_Control_W.c **** 			while (Length && (BytesInEndpoint < USB_ControlEndpointSize))
  30:../../LUFA/Drivers/USB/LowLevel/Template/Template_Endpoint_Control_W.c **** 			{
  31:../../LUFA/Drivers/USB/LowLevel/Template/Template_Endpoint_Control_W.c **** 				TEMPLATE_TRANSFER_BYTE(DataStream);
  32:../../LUFA/Drivers/USB/LowLevel/Template/Template_Endpoint_Control_W.c **** 				Length--;
  33:../../LUFA/Drivers/USB/LowLevel/Template/Template_Endpoint_Control_W.c **** 				BytesInEndpoint++;
  34:../../LUFA/Drivers/USB/LowLevel/Template/Template_Endpoint_Control_W.c **** 			}
  35:../../LUFA/Drivers/USB/LowLevel/Template/Template_Endpoint_Control_W.c **** 			
  36:../../LUFA/Drivers/USB/LowLevel/Template/Template_Endpoint_Control_W.c **** 			LastPacketFull = (BytesInEndpoint == USB_ControlEndpointSize);
  37:../../LUFA/Drivers/USB/LowLevel/Template/Template_Endpoint_Control_W.c **** 			Endpoint_ClearIN();
  38:../../LUFA/Drivers/USB/LowLevel/Template/Template_Endpoint_Control_W.c **** 		}
  39:../../LUFA/Drivers/USB/LowLevel/Template/Template_Endpoint_Control_W.c **** 	}
  40:../../LUFA/Drivers/USB/LowLevel/Template/Template_Endpoint_Control_W.c **** 	
  41:../../LUFA/Drivers/USB/LowLevel/Template/Template_Endpoint_Control_W.c **** 	while (!(Endpoint_IsOUTReceived()))
 1993               		.loc 4 41 0
 1994 002e 82FF      		sbrs r24,2
 1995 0030 00C0      		rjmp .L157
  42:../../LUFA/Drivers/USB/LowLevel/Template/Template_Endpoint_Control_W.c **** 	{
  43:../../LUFA/Drivers/USB/LowLevel/Template/Template_Endpoint_Control_W.c **** 		if (USB_DeviceState == DEVICE_STATE_Unattached)
  44:../../LUFA/Drivers/USB/LowLevel/Template/Template_Endpoint_Control_W.c **** 		  return ENDPOINT_RWCSTREAM_DeviceDisconnected;
  45:../../LUFA/Drivers/USB/LowLevel/Template/Template_Endpoint_Control_W.c **** 		else if (USB_DeviceState == DEVICE_STATE_Suspended)
  46:../../LUFA/Drivers/USB/LowLevel/Template/Template_Endpoint_Control_W.c **** 		  return ENDPOINT_RWCSTREAM_BusSuspended;
  47:../../LUFA/Drivers/USB/LowLevel/Template/Template_Endpoint_Control_W.c **** 	}
  48:../../LUFA/Drivers/USB/LowLevel/Template/Template_Endpoint_Control_W.c **** 
  49:../../LUFA/Drivers/USB/LowLevel/Template/Template_Endpoint_Control_W.c **** 	return ENDPOINT_RWCSTREAM_NoError;
 1996               		.loc 4 49 0
 1997 0032 80E0      		ldi r24,0
 1998 0034 0895      		ret
 1999               	.LVL206:
 2000               	.L158:
 2001 0036 B901      		movw r22,r18
 2002               	.LVL207:
 2003 0038 00C0      		rjmp .L147
 2004               	.LVL208:
 2005               	.L156:
 2006               	.LBB366:
 2007               	.LBB367:
 429:../../LUFA/Drivers/USB/LowLevel/Endpoint.h **** 			}
 2008               		.loc 2 429 0
 2009 003a 2091 E800 		lds r18,232
 2010               	.LBE367:
 2011               	.LBE366:
  14:../../LUFA/Drivers/USB/LowLevel/Template/Template_Endpoint_Control_W.c **** 		  return ENDPOINT_RWCSTREAM_HostAborted;
 2012               		.loc 4 14 0
 2013 003e 23FD      		sbrc r18,3
 2014 0040 00C0      		rjmp .L159
 2015               	.LBB368:
 2016               	.LBB369:
 417:../../LUFA/Drivers/USB/LowLevel/Endpoint.h **** 			}
 2017               		.loc 2 417 0
 2018 0042 2091 E800 		lds r18,232
 2019               	.LBE369:
 2020               	.LBE368:
  17:../../LUFA/Drivers/USB/LowLevel/Template/Template_Endpoint_Control_W.c **** 		  break;
 2021               		.loc 4 17 0
 2022 0046 22FD      		sbrc r18,2
 2023 0048 00C0      		rjmp .L169
  20:../../LUFA/Drivers/USB/LowLevel/Template/Template_Endpoint_Control_W.c **** 		  return ENDPOINT_RWCSTREAM_DeviceDisconnected;
 2024               		.loc 4 20 0
 2025 004a 2EB3      		in r18,0x1e
 2026 004c 2223      		tst r18
 2027 004e 01F0      		breq .L162
  22:../../LUFA/Drivers/USB/LowLevel/Template/Template_Endpoint_Control_W.c **** 		  return ENDPOINT_RWCSTREAM_BusSuspended;
 2028               		.loc 4 22 0
 2029 0050 2EB3      		in r18,0x1e
 2030 0052 2530      		cpi r18,lo8(5)
 2031 0054 01F0      		breq .L163
 2032               	.LBB370:
 2033               	.LBB371:
 405:../../LUFA/Drivers/USB/LowLevel/Endpoint.h **** 			}
 2034               		.loc 2 405 0
 2035 0056 2091 E800 		lds r18,232
 2036               	.LBE371:
 2037               	.LBE370:
  25:../../LUFA/Drivers/USB/LowLevel/Template/Template_Endpoint_Control_W.c **** 		{
 2038               		.loc 4 25 0
 2039 005a 20FF      		sbrs r18,0
 2040 005c 00C0      		rjmp .L151
 2041               	.LBB372:
 2042               	.LBB373:
 2043               	.LBB374:
 266:../../LUFA/Drivers/USB/LowLevel/Endpoint.h **** 				#endif
 2044               		.loc 2 266 0
 2045 005e 2091 F200 		lds r18,242
 2046               	.LVL209:
 2047 0062 FC01      		movw r30,r24
 2048               	.LVL210:
 2049               	.L152:
 2050 0064 CF01      		movw r24,r30
 2051               	.LVL211:
 2052               	.LBE374:
 2053               	.LBE373:
  29:../../LUFA/Drivers/USB/LowLevel/Template/Template_Endpoint_Control_W.c **** 			{
 2054               		.loc 4 29 0
 2055 0066 6115      		cp r22,__zero_reg__
 2056 0068 7105      		cpc r23,__zero_reg__
 2057 006a 01F0      		breq .L153
  29:../../LUFA/Drivers/USB/LowLevel/Template/Template_Endpoint_Control_W.c **** 			{
 2058               		.loc 4 29 0 is_stmt 0 discriminator 1
 2059 006c 2830      		cpi r18,lo8(8)
 2060 006e 00F0      		brlo .L154
 2061               	.L153:
  36:../../LUFA/Drivers/USB/LowLevel/Template/Template_Endpoint_Control_W.c **** 			Endpoint_ClearIN();
 2062               		.loc 4 36 0 is_stmt 1
 2063 0070 31E0      		ldi r19,lo8(1)
 2064               	.LVL212:
 2065 0072 2830      		cpi r18,lo8(8)
 2066 0074 01F0      		breq .L155
 2067 0076 30E0      		ldi r19,0
 2068               	.L155:
 2069               	.LVL213:
 2070               	.LBB375:
 2071               	.LBB376:
 454:../../LUFA/Drivers/USB/LowLevel/Endpoint.h **** 				#else
 2072               		.loc 2 454 0
 2073 0078 2091 E800 		lds r18,232
 2074               	.LVL214:
 2075 007c 2E77      		andi r18,lo8(126)
 2076 007e 2093 E800 		sts 232,r18
 2077 0082 00C0      		rjmp .L151
 2078               	.LVL215:
 2079               	.L154:
 2080               	.LBE376:
 2081               	.LBE375:
  31:../../LUFA/Drivers/USB/LowLevel/Template/Template_Endpoint_Control_W.c **** 				Length--;
 2082               		.loc 4 31 0
 2083 0084 8191      		ld r24,Z+
 2084               	.LVL216:
 2085               	.LBB377:
 2086               	.LBB378:
 562:../../LUFA/Drivers/USB/LowLevel/Endpoint.h **** 			}
 2087               		.loc 2 562 0
 2088 0086 8093 F100 		sts 241,r24
 2089               	.LVL217:
 2090               	.LBE378:
 2091               	.LBE377:
  32:../../LUFA/Drivers/USB/LowLevel/Template/Template_Endpoint_Control_W.c **** 				BytesInEndpoint++;
 2092               		.loc 4 32 0
 2093 008a 6150      		subi r22,1
 2094 008c 7109      		sbc r23,__zero_reg__
 2095               	.LVL218:
  33:../../LUFA/Drivers/USB/LowLevel/Template/Template_Endpoint_Control_W.c **** 			}
 2096               		.loc 4 33 0
 2097 008e 2F5F      		subi r18,lo8(-(1))
 2098               	.LVL219:
 2099 0090 00C0      		rjmp .L152
 2100               	.LVL220:
 2101               	.L157:
 2102               	.LBE372:
  43:../../LUFA/Drivers/USB/LowLevel/Template/Template_Endpoint_Control_W.c **** 		  return ENDPOINT_RWCSTREAM_DeviceDisconnected;
 2103               		.loc 4 43 0
 2104 0092 8EB3      		in r24,0x1e
 2105 0094 8823      		tst r24
 2106 0096 01F0      		breq .L162
  45:../../LUFA/Drivers/USB/LowLevel/Template/Template_Endpoint_Control_W.c **** 		  return ENDPOINT_RWCSTREAM_BusSuspended;
 2107               		.loc 4 45 0
 2108 0098 8EB3      		in r24,0x1e
 2109 009a 8530      		cpi r24,lo8(5)
 2110 009c 01F4      		brne .L169
 2111               	.L163:
  23:../../LUFA/Drivers/USB/LowLevel/Template/Template_Endpoint_Control_W.c **** 		  
 2112               		.loc 4 23 0
 2113 009e 83E0      		ldi r24,lo8(3)
 2114               	/* epilogue start */
  50:../../LUFA/Drivers/USB/LowLevel/Template/Template_Endpoint_Control_W.c **** }
 2115               		.loc 4 50 0
 2116 00a0 0895      		ret
 2117               	.LVL221:
 2118               	.L159:
  15:../../LUFA/Drivers/USB/LowLevel/Template/Template_Endpoint_Control_W.c **** 
 2119               		.loc 4 15 0
 2120 00a2 81E0      		ldi r24,lo8(1)
 2121               	.LVL222:
 2122 00a4 0895      		ret
 2123               	.L162:
  21:../../LUFA/Drivers/USB/LowLevel/Template/Template_Endpoint_Control_W.c **** 		else if (USB_DeviceState == DEVICE_STATE_Suspended)
 2124               		.loc 4 21 0
 2125 00a6 82E0      		ldi r24,lo8(2)
 2126 00a8 0895      		ret
 2127               		.cfi_endproc
 2128               	.LFE80:
 2130               		.section	.text.Endpoint_Write_Control_PStream_LE,"ax",@progbits
 2131               	.global	Endpoint_Write_Control_PStream_LE
 2133               	Endpoint_Write_Control_PStream_LE:
 2134               	.LFB81:
   3:../../LUFA/Drivers/USB/LowLevel/Template/Template_Endpoint_Control_W.c **** 	uint8_t* DataStream     = ((uint8_t*)Buffer + TEMPLATE_BUFFER_OFFSET(Length));
 2135               		.loc 4 3 0
 2136               		.cfi_startproc
 2137               	.LVL223:
 2138               	/* prologue: function */
 2139               	/* frame size = 0 */
 2140               	/* stack size = 0 */
 2141               	.L__stack_usage = 0
   7:../../LUFA/Drivers/USB/LowLevel/Template/Template_Endpoint_Control_W.c **** 	  Length = USB_ControlRequest.wLength;
 2142               		.loc 4 7 0
 2143 0000 2091 0000 		lds r18,USB_ControlRequest+6
 2144 0004 3091 0000 		lds r19,USB_ControlRequest+6+1
 2145 0008 2617      		cp r18,r22
 2146 000a 3707      		cpc r19,r23
 2147 000c 00F0      		brlo .L185
   9:../../LUFA/Drivers/USB/LowLevel/Template/Template_Endpoint_Control_W.c **** 	  Endpoint_ClearIN();
 2148               		.loc 4 9 0
 2149 000e 6115      		cp r22,__zero_reg__
 2150 0010 7105      		cpc r23,__zero_reg__
 2151 0012 01F4      		brne .L174
 2152               	.LBB379:
 2153               	.LBB380:
 454:../../LUFA/Drivers/USB/LowLevel/Endpoint.h **** 				#else
 2154               		.loc 2 454 0
 2155 0014 2091 E800 		lds r18,232
 2156 0018 2E77      		andi r18,lo8(126)
 2157 001a 2093 E800 		sts 232,r18
 2158               	.LVL224:
 2159               	.L174:
 2160               	.LBE380:
 2161               	.LBE379:
 2162 001e 30E0      		ldi r19,0
 2163               	.LVL225:
 2164               	.L178:
  12:../../LUFA/Drivers/USB/LowLevel/Template/Template_Endpoint_Control_W.c **** 	{
 2165               		.loc 4 12 0
 2166 0020 6115      		cp r22,__zero_reg__
 2167 0022 7105      		cpc r23,__zero_reg__
 2168 0024 01F4      		brne .L183
  12:../../LUFA/Drivers/USB/LowLevel/Template/Template_Endpoint_Control_W.c **** 	{
 2169               		.loc 4 12 0 is_stmt 0 discriminator 1
 2170 0026 3111      		cpse r19,__zero_reg__
 2171 0028 00C0      		rjmp .L183
 2172               	.LVL226:
 2173               	.L196:
 2174               	.LBB381:
 2175               	.LBB382:
 417:../../LUFA/Drivers/USB/LowLevel/Endpoint.h **** 			}
 2176               		.loc 2 417 0 is_stmt 1
 2177 002a 8091 E800 		lds r24,232
 2178               	.LBE382:
 2179               	.LBE381:
  41:../../LUFA/Drivers/USB/LowLevel/Template/Template_Endpoint_Control_W.c **** 	{
 2180               		.loc 4 41 0
 2181 002e 82FF      		sbrs r24,2
 2182 0030 00C0      		rjmp .L184
  49:../../LUFA/Drivers/USB/LowLevel/Template/Template_Endpoint_Control_W.c **** }
 2183               		.loc 4 49 0
 2184 0032 80E0      		ldi r24,0
 2185 0034 0895      		ret
 2186               	.LVL227:
 2187               	.L185:
 2188 0036 B901      		movw r22,r18
 2189               	.LVL228:
 2190 0038 00C0      		rjmp .L174
 2191               	.LVL229:
 2192               	.L183:
 2193               	.LBB383:
 2194               	.LBB384:
 429:../../LUFA/Drivers/USB/LowLevel/Endpoint.h **** 			}
 2195               		.loc 2 429 0
 2196 003a 2091 E800 		lds r18,232
 2197               	.LBE384:
 2198               	.LBE383:
  14:../../LUFA/Drivers/USB/LowLevel/Template/Template_Endpoint_Control_W.c **** 		  return ENDPOINT_RWCSTREAM_HostAborted;
 2199               		.loc 4 14 0
 2200 003e 23FD      		sbrc r18,3
 2201 0040 00C0      		rjmp .L186
 2202               	.LBB385:
 2203               	.LBB386:
 417:../../LUFA/Drivers/USB/LowLevel/Endpoint.h **** 			}
 2204               		.loc 2 417 0
 2205 0042 2091 E800 		lds r18,232
 2206               	.LBE386:
 2207               	.LBE385:
  17:../../LUFA/Drivers/USB/LowLevel/Template/Template_Endpoint_Control_W.c **** 		  break;
 2208               		.loc 4 17 0
 2209 0046 22FD      		sbrc r18,2
 2210 0048 00C0      		rjmp .L196
  20:../../LUFA/Drivers/USB/LowLevel/Template/Template_Endpoint_Control_W.c **** 		  return ENDPOINT_RWCSTREAM_DeviceDisconnected;
 2211               		.loc 4 20 0
 2212 004a 2EB3      		in r18,0x1e
 2213 004c 2223      		tst r18
 2214 004e 01F0      		breq .L189
  22:../../LUFA/Drivers/USB/LowLevel/Template/Template_Endpoint_Control_W.c **** 		  return ENDPOINT_RWCSTREAM_BusSuspended;
 2215               		.loc 4 22 0
 2216 0050 2EB3      		in r18,0x1e
 2217 0052 2530      		cpi r18,lo8(5)
 2218 0054 01F0      		breq .L190
 2219               	.LBB387:
 2220               	.LBB388:
 405:../../LUFA/Drivers/USB/LowLevel/Endpoint.h **** 			}
 2221               		.loc 2 405 0
 2222 0056 2091 E800 		lds r18,232
 2223               	.LBE388:
 2224               	.LBE387:
  25:../../LUFA/Drivers/USB/LowLevel/Template/Template_Endpoint_Control_W.c **** 		{
 2225               		.loc 4 25 0
 2226 005a 20FF      		sbrs r18,0
 2227 005c 00C0      		rjmp .L178
 2228               	.LBB389:
 2229               	.LBB390:
 2230               	.LBB391:
 266:../../LUFA/Drivers/USB/LowLevel/Endpoint.h **** 				#endif
 2231               		.loc 2 266 0
 2232 005e 2091 F200 		lds r18,242
 2233               	.LVL230:
 2234 0062 FC01      		movw r30,r24
 2235               	.LVL231:
 2236               	.L179:
 2237 0064 CF01      		movw r24,r30
 2238               	.LVL232:
 2239               	.LBE391:
 2240               	.LBE390:
  29:../../LUFA/Drivers/USB/LowLevel/Template/Template_Endpoint_Control_W.c **** 			{
 2241               		.loc 4 29 0
 2242 0066 6115      		cp r22,__zero_reg__
 2243 0068 7105      		cpc r23,__zero_reg__
 2244 006a 01F0      		breq .L180
  29:../../LUFA/Drivers/USB/LowLevel/Template/Template_Endpoint_Control_W.c **** 			{
 2245               		.loc 4 29 0 is_stmt 0 discriminator 1
 2246 006c 2830      		cpi r18,lo8(8)
 2247 006e 00F0      		brlo .L181
 2248               	.L180:
  36:../../LUFA/Drivers/USB/LowLevel/Template/Template_Endpoint_Control_W.c **** 			Endpoint_ClearIN();
 2249               		.loc 4 36 0 is_stmt 1
 2250 0070 31E0      		ldi r19,lo8(1)
 2251               	.LVL233:
 2252 0072 2830      		cpi r18,lo8(8)
 2253 0074 01F0      		breq .L182
 2254 0076 30E0      		ldi r19,0
 2255               	.L182:
 2256               	.LVL234:
 2257               	.LBB392:
 2258               	.LBB393:
 454:../../LUFA/Drivers/USB/LowLevel/Endpoint.h **** 				#else
 2259               		.loc 2 454 0
 2260 0078 2091 E800 		lds r18,232
 2261               	.LVL235:
 2262 007c 2E77      		andi r18,lo8(126)
 2263 007e 2093 E800 		sts 232,r18
 2264 0082 00C0      		rjmp .L178
 2265               	.LVL236:
 2266               	.L181:
 2267               	.LBE393:
 2268               	.LBE392:
 2269               	.LBB394:
  31:../../LUFA/Drivers/USB/LowLevel/Template/Template_Endpoint_Control_W.c **** 				Length--;
 2270               		.loc 4 31 0
 2271               	/* #APP */
 2272               	 ;  31 "../../LUFA/Drivers/USB/LowLevel/Template/Template_Endpoint_Control_W.c" 1
 2273 0084 8491      		lpm r24, Z
 2274               		
 2275               	 ;  0 "" 2
 2276               	.LVL237:
 2277               	/* #NOAPP */
 2278               	.LBE394:
 2279               	.LBB395:
 2280               	.LBB396:
 562:../../LUFA/Drivers/USB/LowLevel/Endpoint.h **** 			}
 2281               		.loc 2 562 0
 2282 0086 8093 F100 		sts 241,r24
 2283               	.LVL238:
 2284               	.LBE396:
 2285               	.LBE395:
  32:../../LUFA/Drivers/USB/LowLevel/Template/Template_Endpoint_Control_W.c **** 				BytesInEndpoint++;
 2286               		.loc 4 32 0
 2287 008a 6150      		subi r22,1
 2288 008c 7109      		sbc r23,__zero_reg__
 2289               	.LVL239:
  33:../../LUFA/Drivers/USB/LowLevel/Template/Template_Endpoint_Control_W.c **** 			}
 2290               		.loc 4 33 0
 2291 008e 2F5F      		subi r18,lo8(-(1))
 2292               	.LVL240:
 2293 0090 3196      		adiw r30,1
 2294               	.LVL241:
 2295 0092 00C0      		rjmp .L179
 2296               	.LVL242:
 2297               	.L184:
 2298               	.LBE389:
  43:../../LUFA/Drivers/USB/LowLevel/Template/Template_Endpoint_Control_W.c **** 		  return ENDPOINT_RWCSTREAM_DeviceDisconnected;
 2299               		.loc 4 43 0
 2300 0094 8EB3      		in r24,0x1e
 2301 0096 8823      		tst r24
 2302 0098 01F0      		breq .L189
  45:../../LUFA/Drivers/USB/LowLevel/Template/Template_Endpoint_Control_W.c **** 		  return ENDPOINT_RWCSTREAM_BusSuspended;
 2303               		.loc 4 45 0
 2304 009a 8EB3      		in r24,0x1e
 2305 009c 8530      		cpi r24,lo8(5)
 2306 009e 01F4      		brne .L196
 2307               	.L190:
  23:../../LUFA/Drivers/USB/LowLevel/Template/Template_Endpoint_Control_W.c **** 		  
 2308               		.loc 4 23 0
 2309 00a0 83E0      		ldi r24,lo8(3)
 2310               	/* epilogue start */
 2311               		.loc 4 50 0
 2312 00a2 0895      		ret
 2313               	.LVL243:
 2314               	.L186:
  15:../../LUFA/Drivers/USB/LowLevel/Template/Template_Endpoint_Control_W.c **** 
 2315               		.loc 4 15 0
 2316 00a4 81E0      		ldi r24,lo8(1)
 2317               	.LVL244:
 2318 00a6 0895      		ret
 2319               	.L189:
  21:../../LUFA/Drivers/USB/LowLevel/Template/Template_Endpoint_Control_W.c **** 		else if (USB_DeviceState == DEVICE_STATE_Suspended)
 2320               		.loc 4 21 0
 2321 00a8 82E0      		ldi r24,lo8(2)
 2322 00aa 0895      		ret
 2323               		.cfi_endproc
 2324               	.LFE81:
 2326               		.section	.text.Endpoint_Write_Control_EStream_LE,"ax",@progbits
 2327               	.global	Endpoint_Write_Control_EStream_LE
 2329               	Endpoint_Write_Control_EStream_LE:
 2330               	.LFB82:
   3:../../LUFA/Drivers/USB/LowLevel/Template/Template_Endpoint_Control_W.c **** 	uint8_t* DataStream     = ((uint8_t*)Buffer + TEMPLATE_BUFFER_OFFSET(Length));
 2331               		.loc 4 3 0
 2332               		.cfi_startproc
 2333               	.LVL245:
 2334 0000 EF92      		push r14
 2335               	.LCFI83:
 2336               		.cfi_def_cfa_offset 3
 2337               		.cfi_offset 14, -2
 2338 0002 FF92      		push r15
 2339               	.LCFI84:
 2340               		.cfi_def_cfa_offset 4
 2341               		.cfi_offset 15, -3
 2342 0004 1F93      		push r17
 2343               	.LCFI85:
 2344               		.cfi_def_cfa_offset 5
 2345               		.cfi_offset 17, -4
 2346 0006 CF93      		push r28
 2347               	.LCFI86:
 2348               		.cfi_def_cfa_offset 6
 2349               		.cfi_offset 28, -5
 2350 0008 DF93      		push r29
 2351               	.LCFI87:
 2352               		.cfi_def_cfa_offset 7
 2353               		.cfi_offset 29, -6
 2354               	/* prologue: function */
 2355               	/* frame size = 0 */
 2356               	/* stack size = 5 */
 2357               	.L__stack_usage = 5
 2358 000a 9C01      		movw r18,r24
 2359 000c EB01      		movw r28,r22
 2360               	.LVL246:
   7:../../LUFA/Drivers/USB/LowLevel/Template/Template_Endpoint_Control_W.c **** 	  Length = USB_ControlRequest.wLength;
 2361               		.loc 4 7 0
 2362 000e 8091 0000 		lds r24,USB_ControlRequest+6
 2363 0012 9091 0000 		lds r25,USB_ControlRequest+6+1
 2364               	.LVL247:
 2365 0016 8617      		cp r24,r22
 2366 0018 9707      		cpc r25,r23
 2367 001a 00F0      		brlo .L212
   9:../../LUFA/Drivers/USB/LowLevel/Template/Template_Endpoint_Control_W.c **** 	  Endpoint_ClearIN();
 2368               		.loc 4 9 0
 2369 001c 2097      		sbiw r28,0
 2370 001e 01F4      		brne .L201
 2371               	.LBB397:
 2372               	.LBB398:
 454:../../LUFA/Drivers/USB/LowLevel/Endpoint.h **** 				#else
 2373               		.loc 2 454 0
 2374 0020 8091 E800 		lds r24,232
 2375 0024 8E77      		andi r24,lo8(126)
 2376 0026 8093 E800 		sts 232,r24
 2377               	.L201:
 2378               	.LBE398:
 2379               	.LBE397:
 2380               	.LBB399:
  31:../../LUFA/Drivers/USB/LowLevel/Template/Template_Endpoint_Control_W.c **** 				Length--;
 2381               		.loc 4 31 0
 2382 002a 90E0      		ldi r25,0
 2383               	.LVL248:
 2384               	.L205:
 2385               	.LBE399:
  12:../../LUFA/Drivers/USB/LowLevel/Template/Template_Endpoint_Control_W.c **** 	{
 2386               		.loc 4 12 0
 2387 002c 2097      		sbiw r28,0
 2388 002e 01F4      		brne .L210
  12:../../LUFA/Drivers/USB/LowLevel/Template/Template_Endpoint_Control_W.c **** 	{
 2389               		.loc 4 12 0 is_stmt 0 discriminator 1
 2390 0030 9111      		cpse r25,__zero_reg__
 2391 0032 00C0      		rjmp .L210
 2392               	.L223:
 2393               	.LBB406:
 2394               	.LBB407:
 417:../../LUFA/Drivers/USB/LowLevel/Endpoint.h **** 			}
 2395               		.loc 2 417 0 is_stmt 1
 2396 0034 8091 E800 		lds r24,232
 2397               	.LBE407:
 2398               	.LBE406:
  41:../../LUFA/Drivers/USB/LowLevel/Template/Template_Endpoint_Control_W.c **** 	{
 2399               		.loc 4 41 0
 2400 0038 82FF      		sbrs r24,2
 2401 003a 00C0      		rjmp .L211
  49:../../LUFA/Drivers/USB/LowLevel/Template/Template_Endpoint_Control_W.c **** }
 2402               		.loc 4 49 0
 2403 003c 80E0      		ldi r24,0
 2404               	.L200:
 2405               	/* epilogue start */
 2406               		.loc 4 50 0
 2407 003e DF91      		pop r29
 2408 0040 CF91      		pop r28
 2409               	.LVL249:
 2410 0042 1F91      		pop r17
 2411 0044 FF90      		pop r15
 2412 0046 EF90      		pop r14
 2413 0048 0895      		ret
 2414               	.LVL250:
 2415               	.L212:
 2416 004a EC01      		movw r28,r24
 2417 004c 00C0      		rjmp .L201
 2418               	.LVL251:
 2419               	.L210:
 2420               	.LBB408:
 2421               	.LBB409:
 429:../../LUFA/Drivers/USB/LowLevel/Endpoint.h **** 			}
 2422               		.loc 2 429 0
 2423 004e 8091 E800 		lds r24,232
 2424               	.LBE409:
 2425               	.LBE408:
  14:../../LUFA/Drivers/USB/LowLevel/Template/Template_Endpoint_Control_W.c **** 		  return ENDPOINT_RWCSTREAM_HostAborted;
 2426               		.loc 4 14 0
 2427 0052 83FD      		sbrc r24,3
 2428 0054 00C0      		rjmp .L213
 2429               	.LBB410:
 2430               	.LBB411:
 417:../../LUFA/Drivers/USB/LowLevel/Endpoint.h **** 			}
 2431               		.loc 2 417 0
 2432 0056 8091 E800 		lds r24,232
 2433               	.LBE411:
 2434               	.LBE410:
  17:../../LUFA/Drivers/USB/LowLevel/Template/Template_Endpoint_Control_W.c **** 		  break;
 2435               		.loc 4 17 0
 2436 005a 82FD      		sbrc r24,2
 2437 005c 00C0      		rjmp .L223
  20:../../LUFA/Drivers/USB/LowLevel/Template/Template_Endpoint_Control_W.c **** 		  return ENDPOINT_RWCSTREAM_DeviceDisconnected;
 2438               		.loc 4 20 0
 2439 005e 8EB3      		in r24,0x1e
 2440 0060 8823      		tst r24
 2441 0062 01F0      		breq .L216
  22:../../LUFA/Drivers/USB/LowLevel/Template/Template_Endpoint_Control_W.c **** 		  return ENDPOINT_RWCSTREAM_BusSuspended;
 2442               		.loc 4 22 0
 2443 0064 8EB3      		in r24,0x1e
 2444 0066 8530      		cpi r24,lo8(5)
 2445 0068 01F0      		breq .L217
 2446               	.LBB412:
 2447               	.LBB413:
 405:../../LUFA/Drivers/USB/LowLevel/Endpoint.h **** 			}
 2448               		.loc 2 405 0
 2449 006a 8091 E800 		lds r24,232
 2450               	.LBE413:
 2451               	.LBE412:
  25:../../LUFA/Drivers/USB/LowLevel/Template/Template_Endpoint_Control_W.c **** 		{
 2452               		.loc 4 25 0
 2453 006e 80FF      		sbrs r24,0
 2454 0070 00C0      		rjmp .L205
 2455               	.LBB414:
 2456               	.LBB400:
 2457               	.LBB401:
 266:../../LUFA/Drivers/USB/LowLevel/Endpoint.h **** 				#endif
 2458               		.loc 2 266 0
 2459 0072 1091 F200 		lds r17,242
 2460               	.LVL252:
 2461               	.L206:
 2462               	.LBE401:
 2463               	.LBE400:
  29:../../LUFA/Drivers/USB/LowLevel/Template/Template_Endpoint_Control_W.c **** 			{
 2464               		.loc 4 29 0
 2465 0076 2097      		sbiw r28,0
 2466 0078 01F0      		breq .L207
  29:../../LUFA/Drivers/USB/LowLevel/Template/Template_Endpoint_Control_W.c **** 			{
 2467               		.loc 4 29 0 is_stmt 0 discriminator 1
 2468 007a 1830      		cpi r17,lo8(8)
 2469 007c 00F0      		brlo .L208
 2470               	.L207:
  36:../../LUFA/Drivers/USB/LowLevel/Template/Template_Endpoint_Control_W.c **** 			Endpoint_ClearIN();
 2471               		.loc 4 36 0 is_stmt 1
 2472 007e 91E0      		ldi r25,lo8(1)
 2473 0080 1830      		cpi r17,lo8(8)
 2474 0082 01F0      		breq .L209
 2475 0084 90E0      		ldi r25,0
 2476               	.L209:
 2477               	.LVL253:
 2478               	.LBB402:
 2479               	.LBB403:
 454:../../LUFA/Drivers/USB/LowLevel/Endpoint.h **** 				#else
 2480               		.loc 2 454 0
 2481 0086 8091 E800 		lds r24,232
 2482 008a 8E77      		andi r24,lo8(126)
 2483 008c 8093 E800 		sts 232,r24
 2484 0090 00C0      		rjmp .L205
 2485               	.LVL254:
 2486               	.L208:
 2487               	.LBE403:
 2488               	.LBE402:
  31:../../LUFA/Drivers/USB/LowLevel/Template/Template_Endpoint_Control_W.c **** 				Length--;
 2489               		.loc 4 31 0
 2490 0092 7901      		movw r14,r18
 2491 0094 8FEF      		ldi r24,-1
 2492 0096 E81A      		sub r14,r24
 2493 0098 F80A      		sbc r15,r24
 2494               	.LVL255:
 2495 009a C901      		movw r24,r18
 2496 009c 0E94 0000 		call eeprom_read_byte
 2497               	.LVL256:
 2498               	.LBB404:
 2499               	.LBB405:
 562:../../LUFA/Drivers/USB/LowLevel/Endpoint.h **** 			}
 2500               		.loc 2 562 0
 2501 00a0 8093 F100 		sts 241,r24
 2502               	.LVL257:
 2503               	.LBE405:
 2504               	.LBE404:
  32:../../LUFA/Drivers/USB/LowLevel/Template/Template_Endpoint_Control_W.c **** 				BytesInEndpoint++;
 2505               		.loc 4 32 0
 2506 00a4 2197      		sbiw r28,1
 2507               	.LVL258:
  33:../../LUFA/Drivers/USB/LowLevel/Template/Template_Endpoint_Control_W.c **** 			}
 2508               		.loc 4 33 0
 2509 00a6 1F5F      		subi r17,lo8(-(1))
 2510               	.LVL259:
  31:../../LUFA/Drivers/USB/LowLevel/Template/Template_Endpoint_Control_W.c **** 				Length--;
 2511               		.loc 4 31 0
 2512 00a8 9701      		movw r18,r14
 2513 00aa 00C0      		rjmp .L206
 2514               	.LVL260:
 2515               	.L211:
 2516               	.LBE414:
  43:../../LUFA/Drivers/USB/LowLevel/Template/Template_Endpoint_Control_W.c **** 		  return ENDPOINT_RWCSTREAM_DeviceDisconnected;
 2517               		.loc 4 43 0
 2518 00ac 8EB3      		in r24,0x1e
 2519 00ae 8823      		tst r24
 2520 00b0 01F0      		breq .L216
  45:../../LUFA/Drivers/USB/LowLevel/Template/Template_Endpoint_Control_W.c **** 		  return ENDPOINT_RWCSTREAM_BusSuspended;
 2521               		.loc 4 45 0
 2522 00b2 8EB3      		in r24,0x1e
 2523 00b4 8530      		cpi r24,lo8(5)
 2524 00b6 01F0      		breq .+2
 2525 00b8 00C0      		rjmp .L223
 2526               	.L217:
  23:../../LUFA/Drivers/USB/LowLevel/Template/Template_Endpoint_Control_W.c **** 		  
 2527               		.loc 4 23 0
 2528 00ba 83E0      		ldi r24,lo8(3)
 2529 00bc 00C0      		rjmp .L200
 2530               	.L213:
  15:../../LUFA/Drivers/USB/LowLevel/Template/Template_Endpoint_Control_W.c **** 
 2531               		.loc 4 15 0
 2532 00be 81E0      		ldi r24,lo8(1)
 2533 00c0 00C0      		rjmp .L200
 2534               	.L216:
  21:../../LUFA/Drivers/USB/LowLevel/Template/Template_Endpoint_Control_W.c **** 		else if (USB_DeviceState == DEVICE_STATE_Suspended)
 2535               		.loc 4 21 0
 2536 00c2 82E0      		ldi r24,lo8(2)
 2537 00c4 00C0      		rjmp .L200
 2538               		.cfi_endproc
 2539               	.LFE82:
 2541               		.section	.text.Endpoint_Write_Control_Stream_BE,"ax",@progbits
 2542               	.global	Endpoint_Write_Control_Stream_BE
 2544               	Endpoint_Write_Control_Stream_BE:
 2545               	.LFB83:
   3:../../LUFA/Drivers/USB/LowLevel/Template/Template_Endpoint_Control_W.c **** 	uint8_t* DataStream     = ((uint8_t*)Buffer + TEMPLATE_BUFFER_OFFSET(Length));
 2546               		.loc 4 3 0
 2547               		.cfi_startproc
 2548               	.LVL261:
 2549               	/* prologue: function */
 2550               	/* frame size = 0 */
 2551               	/* stack size = 0 */
 2552               	.L__stack_usage = 0
   4:../../LUFA/Drivers/USB/LowLevel/Template/Template_Endpoint_Control_W.c **** 	bool     LastPacketFull = false;
 2553               		.loc 4 4 0
 2554 0000 9B01      		movw r18,r22
 2555 0002 2150      		subi r18,1
 2556 0004 3109      		sbc r19,__zero_reg__
 2557 0006 820F      		add r24,r18
 2558 0008 931F      		adc r25,r19
 2559               	.LVL262:
   7:../../LUFA/Drivers/USB/LowLevel/Template/Template_Endpoint_Control_W.c **** 	  Length = USB_ControlRequest.wLength;
 2560               		.loc 4 7 0
 2561 000a 2091 0000 		lds r18,USB_ControlRequest+6
 2562 000e 3091 0000 		lds r19,USB_ControlRequest+6+1
 2563 0012 2617      		cp r18,r22
 2564 0014 3707      		cpc r19,r23
 2565 0016 00F0      		brlo .L239
   9:../../LUFA/Drivers/USB/LowLevel/Template/Template_Endpoint_Control_W.c **** 	  Endpoint_ClearIN();
 2566               		.loc 4 9 0
 2567 0018 6115      		cp r22,__zero_reg__
 2568 001a 7105      		cpc r23,__zero_reg__
 2569 001c 01F4      		brne .L228
 2570               	.LBB415:
 2571               	.LBB416:
 454:../../LUFA/Drivers/USB/LowLevel/Endpoint.h **** 				#else
 2572               		.loc 2 454 0
 2573 001e 2091 E800 		lds r18,232
 2574 0022 2E77      		andi r18,lo8(126)
 2575 0024 2093 E800 		sts 232,r18
 2576               	.LVL263:
 2577               	.L228:
 2578               	.LBE416:
 2579               	.LBE415:
 2580 0028 30E0      		ldi r19,0
 2581               	.LVL264:
 2582               	.L232:
  12:../../LUFA/Drivers/USB/LowLevel/Template/Template_Endpoint_Control_W.c **** 	{
 2583               		.loc 4 12 0
 2584 002a 6115      		cp r22,__zero_reg__
 2585 002c 7105      		cpc r23,__zero_reg__
 2586 002e 01F4      		brne .L237
  12:../../LUFA/Drivers/USB/LowLevel/Template/Template_Endpoint_Control_W.c **** 	{
 2587               		.loc 4 12 0 is_stmt 0 discriminator 1
 2588 0030 3111      		cpse r19,__zero_reg__
 2589 0032 00C0      		rjmp .L237
 2590               	.LVL265:
 2591               	.L250:
 2592               	.LBB417:
 2593               	.LBB418:
 417:../../LUFA/Drivers/USB/LowLevel/Endpoint.h **** 			}
 2594               		.loc 2 417 0 is_stmt 1
 2595 0034 8091 E800 		lds r24,232
 2596               	.LBE418:
 2597               	.LBE417:
  41:../../LUFA/Drivers/USB/LowLevel/Template/Template_Endpoint_Control_W.c **** 	{
 2598               		.loc 4 41 0
 2599 0038 82FF      		sbrs r24,2
 2600 003a 00C0      		rjmp .L238
  49:../../LUFA/Drivers/USB/LowLevel/Template/Template_Endpoint_Control_W.c **** }
 2601               		.loc 4 49 0
 2602 003c 80E0      		ldi r24,0
 2603 003e 0895      		ret
 2604               	.LVL266:
 2605               	.L239:
 2606 0040 B901      		movw r22,r18
 2607               	.LVL267:
 2608 0042 00C0      		rjmp .L228
 2609               	.LVL268:
 2610               	.L237:
 2611               	.LBB419:
 2612               	.LBB420:
 429:../../LUFA/Drivers/USB/LowLevel/Endpoint.h **** 			}
 2613               		.loc 2 429 0
 2614 0044 2091 E800 		lds r18,232
 2615               	.LBE420:
 2616               	.LBE419:
  14:../../LUFA/Drivers/USB/LowLevel/Template/Template_Endpoint_Control_W.c **** 		  return ENDPOINT_RWCSTREAM_HostAborted;
 2617               		.loc 4 14 0
 2618 0048 23FD      		sbrc r18,3
 2619 004a 00C0      		rjmp .L240
 2620               	.LBB421:
 2621               	.LBB422:
 417:../../LUFA/Drivers/USB/LowLevel/Endpoint.h **** 			}
 2622               		.loc 2 417 0
 2623 004c 2091 E800 		lds r18,232
 2624               	.LBE422:
 2625               	.LBE421:
  17:../../LUFA/Drivers/USB/LowLevel/Template/Template_Endpoint_Control_W.c **** 		  break;
 2626               		.loc 4 17 0
 2627 0050 22FD      		sbrc r18,2
 2628 0052 00C0      		rjmp .L250
  20:../../LUFA/Drivers/USB/LowLevel/Template/Template_Endpoint_Control_W.c **** 		  return ENDPOINT_RWCSTREAM_DeviceDisconnected;
 2629               		.loc 4 20 0
 2630 0054 2EB3      		in r18,0x1e
 2631 0056 2223      		tst r18
 2632 0058 01F0      		breq .L243
  22:../../LUFA/Drivers/USB/LowLevel/Template/Template_Endpoint_Control_W.c **** 		  return ENDPOINT_RWCSTREAM_BusSuspended;
 2633               		.loc 4 22 0
 2634 005a 2EB3      		in r18,0x1e
 2635 005c 2530      		cpi r18,lo8(5)
 2636 005e 01F0      		breq .L244
 2637               	.LBB423:
 2638               	.LBB424:
 405:../../LUFA/Drivers/USB/LowLevel/Endpoint.h **** 			}
 2639               		.loc 2 405 0
 2640 0060 2091 E800 		lds r18,232
 2641               	.LBE424:
 2642               	.LBE423:
  25:../../LUFA/Drivers/USB/LowLevel/Template/Template_Endpoint_Control_W.c **** 		{
 2643               		.loc 4 25 0
 2644 0064 20FF      		sbrs r18,0
 2645 0066 00C0      		rjmp .L232
 2646               	.LBB425:
 2647               	.LBB426:
 2648               	.LBB427:
 266:../../LUFA/Drivers/USB/LowLevel/Endpoint.h **** 				#endif
 2649               		.loc 2 266 0
 2650 0068 2091 F200 		lds r18,242
 2651               	.LVL269:
 2652               	.L233:
 2653               	.LBE427:
 2654               	.LBE426:
  29:../../LUFA/Drivers/USB/LowLevel/Template/Template_Endpoint_Control_W.c **** 			{
 2655               		.loc 4 29 0
 2656 006c 6115      		cp r22,__zero_reg__
 2657 006e 7105      		cpc r23,__zero_reg__
 2658 0070 01F0      		breq .L234
  29:../../LUFA/Drivers/USB/LowLevel/Template/Template_Endpoint_Control_W.c **** 			{
 2659               		.loc 4 29 0 is_stmt 0 discriminator 1
 2660 0072 2830      		cpi r18,lo8(8)
 2661 0074 00F0      		brlo .L235
 2662               	.L234:
  36:../../LUFA/Drivers/USB/LowLevel/Template/Template_Endpoint_Control_W.c **** 			Endpoint_ClearIN();
 2663               		.loc 4 36 0 is_stmt 1
 2664 0076 31E0      		ldi r19,lo8(1)
 2665 0078 2830      		cpi r18,lo8(8)
 2666 007a 01F0      		breq .L236
 2667 007c 30E0      		ldi r19,0
 2668               	.L236:
 2669               	.LVL270:
 2670               	.LBB428:
 2671               	.LBB429:
 454:../../LUFA/Drivers/USB/LowLevel/Endpoint.h **** 				#else
 2672               		.loc 2 454 0
 2673 007e 2091 E800 		lds r18,232
 2674               	.LVL271:
 2675 0082 2E77      		andi r18,lo8(126)
 2676 0084 2093 E800 		sts 232,r18
 2677 0088 00C0      		rjmp .L232
 2678               	.LVL272:
 2679               	.L235:
 2680               	.LBE429:
 2681               	.LBE428:
  31:../../LUFA/Drivers/USB/LowLevel/Template/Template_Endpoint_Control_W.c **** 				Length--;
 2682               		.loc 4 31 0
 2683 008a 0197      		sbiw r24,1
 2684               	.LVL273:
 2685 008c FC01      		movw r30,r24
 2686 008e 3181      		ldd r19,Z+1
 2687               	.LVL274:
 2688               	.LBB430:
 2689               	.LBB431:
 562:../../LUFA/Drivers/USB/LowLevel/Endpoint.h **** 			}
 2690               		.loc 2 562 0
 2691 0090 3093 F100 		sts 241,r19
 2692               	.LVL275:
 2693               	.LBE431:
 2694               	.LBE430:
  32:../../LUFA/Drivers/USB/LowLevel/Template/Template_Endpoint_Control_W.c **** 				BytesInEndpoint++;
 2695               		.loc 4 32 0
 2696 0094 6150      		subi r22,1
 2697 0096 7109      		sbc r23,__zero_reg__
 2698               	.LVL276:
  33:../../LUFA/Drivers/USB/LowLevel/Template/Template_Endpoint_Control_W.c **** 			}
 2699               		.loc 4 33 0
 2700 0098 2F5F      		subi r18,lo8(-(1))
 2701               	.LVL277:
 2702 009a 00C0      		rjmp .L233
 2703               	.LVL278:
 2704               	.L238:
 2705               	.LBE425:
  43:../../LUFA/Drivers/USB/LowLevel/Template/Template_Endpoint_Control_W.c **** 		  return ENDPOINT_RWCSTREAM_DeviceDisconnected;
 2706               		.loc 4 43 0
 2707 009c 8EB3      		in r24,0x1e
 2708 009e 8823      		tst r24
 2709 00a0 01F0      		breq .L243
  45:../../LUFA/Drivers/USB/LowLevel/Template/Template_Endpoint_Control_W.c **** 		  return ENDPOINT_RWCSTREAM_BusSuspended;
 2710               		.loc 4 45 0
 2711 00a2 8EB3      		in r24,0x1e
 2712 00a4 8530      		cpi r24,lo8(5)
 2713 00a6 01F4      		brne .L250
 2714               	.L244:
  23:../../LUFA/Drivers/USB/LowLevel/Template/Template_Endpoint_Control_W.c **** 		  
 2715               		.loc 4 23 0
 2716 00a8 83E0      		ldi r24,lo8(3)
 2717               	/* epilogue start */
 2718               		.loc 4 50 0
 2719 00aa 0895      		ret
 2720               	.LVL279:
 2721               	.L240:
  15:../../LUFA/Drivers/USB/LowLevel/Template/Template_Endpoint_Control_W.c **** 
 2722               		.loc 4 15 0
 2723 00ac 81E0      		ldi r24,lo8(1)
 2724               	.LVL280:
 2725 00ae 0895      		ret
 2726               	.L243:
  21:../../LUFA/Drivers/USB/LowLevel/Template/Template_Endpoint_Control_W.c **** 		else if (USB_DeviceState == DEVICE_STATE_Suspended)
 2727               		.loc 4 21 0
 2728 00b0 82E0      		ldi r24,lo8(2)
 2729 00b2 0895      		ret
 2730               		.cfi_endproc
 2731               	.LFE83:
 2733               		.section	.text.Endpoint_Write_Control_PStream_BE,"ax",@progbits
 2734               	.global	Endpoint_Write_Control_PStream_BE
 2736               	Endpoint_Write_Control_PStream_BE:
 2737               	.LFB84:
   3:../../LUFA/Drivers/USB/LowLevel/Template/Template_Endpoint_Control_W.c **** 	uint8_t* DataStream     = ((uint8_t*)Buffer + TEMPLATE_BUFFER_OFFSET(Length));
 2738               		.loc 4 3 0
 2739               		.cfi_startproc
 2740               	.LVL281:
 2741               	/* prologue: function */
 2742               	/* frame size = 0 */
 2743               	/* stack size = 0 */
 2744               	.L__stack_usage = 0
   4:../../LUFA/Drivers/USB/LowLevel/Template/Template_Endpoint_Control_W.c **** 	bool     LastPacketFull = false;
 2745               		.loc 4 4 0
 2746 0000 9B01      		movw r18,r22
 2747 0002 2150      		subi r18,1
 2748 0004 3109      		sbc r19,__zero_reg__
 2749 0006 820F      		add r24,r18
 2750 0008 931F      		adc r25,r19
 2751               	.LVL282:
   7:../../LUFA/Drivers/USB/LowLevel/Template/Template_Endpoint_Control_W.c **** 	  Length = USB_ControlRequest.wLength;
 2752               		.loc 4 7 0
 2753 000a 2091 0000 		lds r18,USB_ControlRequest+6
 2754 000e 3091 0000 		lds r19,USB_ControlRequest+6+1
 2755 0012 2617      		cp r18,r22
 2756 0014 3707      		cpc r19,r23
 2757 0016 00F0      		brlo .L266
   9:../../LUFA/Drivers/USB/LowLevel/Template/Template_Endpoint_Control_W.c **** 	  Endpoint_ClearIN();
 2758               		.loc 4 9 0
 2759 0018 6115      		cp r22,__zero_reg__
 2760 001a 7105      		cpc r23,__zero_reg__
 2761 001c 01F4      		brne .L255
 2762               	.LBB432:
 2763               	.LBB433:
 454:../../LUFA/Drivers/USB/LowLevel/Endpoint.h **** 				#else
 2764               		.loc 2 454 0
 2765 001e 2091 E800 		lds r18,232
 2766 0022 2E77      		andi r18,lo8(126)
 2767 0024 2093 E800 		sts 232,r18
 2768               	.LVL283:
 2769               	.L255:
 2770               	.LBE433:
 2771               	.LBE432:
 2772 0028 30E0      		ldi r19,0
 2773               	.LVL284:
 2774               	.L259:
  12:../../LUFA/Drivers/USB/LowLevel/Template/Template_Endpoint_Control_W.c **** 	{
 2775               		.loc 4 12 0
 2776 002a 6115      		cp r22,__zero_reg__
 2777 002c 7105      		cpc r23,__zero_reg__
 2778 002e 01F4      		brne .L264
  12:../../LUFA/Drivers/USB/LowLevel/Template/Template_Endpoint_Control_W.c **** 	{
 2779               		.loc 4 12 0 is_stmt 0 discriminator 1
 2780 0030 3111      		cpse r19,__zero_reg__
 2781 0032 00C0      		rjmp .L264
 2782               	.LVL285:
 2783               	.L277:
 2784               	.LBB434:
 2785               	.LBB435:
 417:../../LUFA/Drivers/USB/LowLevel/Endpoint.h **** 			}
 2786               		.loc 2 417 0 is_stmt 1
 2787 0034 8091 E800 		lds r24,232
 2788               	.LBE435:
 2789               	.LBE434:
  41:../../LUFA/Drivers/USB/LowLevel/Template/Template_Endpoint_Control_W.c **** 	{
 2790               		.loc 4 41 0
 2791 0038 82FF      		sbrs r24,2
 2792 003a 00C0      		rjmp .L265
  49:../../LUFA/Drivers/USB/LowLevel/Template/Template_Endpoint_Control_W.c **** }
 2793               		.loc 4 49 0
 2794 003c 80E0      		ldi r24,0
 2795 003e 0895      		ret
 2796               	.LVL286:
 2797               	.L266:
 2798 0040 B901      		movw r22,r18
 2799               	.LVL287:
 2800 0042 00C0      		rjmp .L255
 2801               	.LVL288:
 2802               	.L264:
 2803               	.LBB436:
 2804               	.LBB437:
 429:../../LUFA/Drivers/USB/LowLevel/Endpoint.h **** 			}
 2805               		.loc 2 429 0
 2806 0044 2091 E800 		lds r18,232
 2807               	.LBE437:
 2808               	.LBE436:
  14:../../LUFA/Drivers/USB/LowLevel/Template/Template_Endpoint_Control_W.c **** 		  return ENDPOINT_RWCSTREAM_HostAborted;
 2809               		.loc 4 14 0
 2810 0048 23FD      		sbrc r18,3
 2811 004a 00C0      		rjmp .L267
 2812               	.LBB438:
 2813               	.LBB439:
 417:../../LUFA/Drivers/USB/LowLevel/Endpoint.h **** 			}
 2814               		.loc 2 417 0
 2815 004c 2091 E800 		lds r18,232
 2816               	.LBE439:
 2817               	.LBE438:
  17:../../LUFA/Drivers/USB/LowLevel/Template/Template_Endpoint_Control_W.c **** 		  break;
 2818               		.loc 4 17 0
 2819 0050 22FD      		sbrc r18,2
 2820 0052 00C0      		rjmp .L277
  20:../../LUFA/Drivers/USB/LowLevel/Template/Template_Endpoint_Control_W.c **** 		  return ENDPOINT_RWCSTREAM_DeviceDisconnected;
 2821               		.loc 4 20 0
 2822 0054 2EB3      		in r18,0x1e
 2823 0056 2223      		tst r18
 2824 0058 01F0      		breq .L270
  22:../../LUFA/Drivers/USB/LowLevel/Template/Template_Endpoint_Control_W.c **** 		  return ENDPOINT_RWCSTREAM_BusSuspended;
 2825               		.loc 4 22 0
 2826 005a 2EB3      		in r18,0x1e
 2827 005c 2530      		cpi r18,lo8(5)
 2828 005e 01F0      		breq .L271
 2829               	.LBB440:
 2830               	.LBB441:
 405:../../LUFA/Drivers/USB/LowLevel/Endpoint.h **** 			}
 2831               		.loc 2 405 0
 2832 0060 2091 E800 		lds r18,232
 2833               	.LBE441:
 2834               	.LBE440:
  25:../../LUFA/Drivers/USB/LowLevel/Template/Template_Endpoint_Control_W.c **** 		{
 2835               		.loc 4 25 0
 2836 0064 20FF      		sbrs r18,0
 2837 0066 00C0      		rjmp .L259
 2838               	.LBB442:
 2839               	.LBB443:
 2840               	.LBB444:
 266:../../LUFA/Drivers/USB/LowLevel/Endpoint.h **** 				#endif
 2841               		.loc 2 266 0
 2842 0068 2091 F200 		lds r18,242
 2843               	.LVL289:
 2844 006c FC01      		movw r30,r24
 2845               	.LVL290:
 2846               	.L260:
 2847 006e CF01      		movw r24,r30
 2848               	.LVL291:
 2849               	.LBE444:
 2850               	.LBE443:
  29:../../LUFA/Drivers/USB/LowLevel/Template/Template_Endpoint_Control_W.c **** 			{
 2851               		.loc 4 29 0
 2852 0070 6115      		cp r22,__zero_reg__
 2853 0072 7105      		cpc r23,__zero_reg__
 2854 0074 01F0      		breq .L261
  29:../../LUFA/Drivers/USB/LowLevel/Template/Template_Endpoint_Control_W.c **** 			{
 2855               		.loc 4 29 0 is_stmt 0 discriminator 1
 2856 0076 2830      		cpi r18,lo8(8)
 2857 0078 00F0      		brlo .L262
 2858               	.L261:
  36:../../LUFA/Drivers/USB/LowLevel/Template/Template_Endpoint_Control_W.c **** 			Endpoint_ClearIN();
 2859               		.loc 4 36 0 is_stmt 1
 2860 007a 31E0      		ldi r19,lo8(1)
 2861               	.LVL292:
 2862 007c 2830      		cpi r18,lo8(8)
 2863 007e 01F0      		breq .L263
 2864 0080 30E0      		ldi r19,0
 2865               	.L263:
 2866               	.LVL293:
 2867               	.LBB445:
 2868               	.LBB446:
 454:../../LUFA/Drivers/USB/LowLevel/Endpoint.h **** 				#else
 2869               		.loc 2 454 0
 2870 0082 2091 E800 		lds r18,232
 2871               	.LVL294:
 2872 0086 2E77      		andi r18,lo8(126)
 2873 0088 2093 E800 		sts 232,r18
 2874 008c 00C0      		rjmp .L259
 2875               	.LVL295:
 2876               	.L262:
 2877               	.LBE446:
 2878               	.LBE445:
 2879               	.LBB447:
  31:../../LUFA/Drivers/USB/LowLevel/Template/Template_Endpoint_Control_W.c **** 				Length--;
 2880               		.loc 4 31 0
 2881               	/* #APP */
 2882               	 ;  31 "../../LUFA/Drivers/USB/LowLevel/Template/Template_Endpoint_Control_W.c" 1
 2883 008e 8491      		lpm r24, Z
 2884               		
 2885               	 ;  0 "" 2
 2886               	.LVL296:
 2887               	/* #NOAPP */
 2888               	.LBE447:
 2889               	.LBB448:
 2890               	.LBB449:
 562:../../LUFA/Drivers/USB/LowLevel/Endpoint.h **** 			}
 2891               		.loc 2 562 0
 2892 0090 8093 F100 		sts 241,r24
 2893               	.LVL297:
 2894               	.LBE449:
 2895               	.LBE448:
  32:../../LUFA/Drivers/USB/LowLevel/Template/Template_Endpoint_Control_W.c **** 				BytesInEndpoint++;
 2896               		.loc 4 32 0
 2897 0094 6150      		subi r22,1
 2898 0096 7109      		sbc r23,__zero_reg__
 2899               	.LVL298:
  33:../../LUFA/Drivers/USB/LowLevel/Template/Template_Endpoint_Control_W.c **** 			}
 2900               		.loc 4 33 0
 2901 0098 2F5F      		subi r18,lo8(-(1))
 2902               	.LVL299:
 2903 009a 3197      		sbiw r30,1
 2904               	.LVL300:
 2905 009c 00C0      		rjmp .L260
 2906               	.LVL301:
 2907               	.L265:
 2908               	.LBE442:
  43:../../LUFA/Drivers/USB/LowLevel/Template/Template_Endpoint_Control_W.c **** 		  return ENDPOINT_RWCSTREAM_DeviceDisconnected;
 2909               		.loc 4 43 0
 2910 009e 8EB3      		in r24,0x1e
 2911 00a0 8823      		tst r24
 2912 00a2 01F0      		breq .L270
  45:../../LUFA/Drivers/USB/LowLevel/Template/Template_Endpoint_Control_W.c **** 		  return ENDPOINT_RWCSTREAM_BusSuspended;
 2913               		.loc 4 45 0
 2914 00a4 8EB3      		in r24,0x1e
 2915 00a6 8530      		cpi r24,lo8(5)
 2916 00a8 01F4      		brne .L277
 2917               	.L271:
  23:../../LUFA/Drivers/USB/LowLevel/Template/Template_Endpoint_Control_W.c **** 		  
 2918               		.loc 4 23 0
 2919 00aa 83E0      		ldi r24,lo8(3)
 2920               	/* epilogue start */
 2921               		.loc 4 50 0
 2922 00ac 0895      		ret
 2923               	.LVL302:
 2924               	.L267:
  15:../../LUFA/Drivers/USB/LowLevel/Template/Template_Endpoint_Control_W.c **** 
 2925               		.loc 4 15 0
 2926 00ae 81E0      		ldi r24,lo8(1)
 2927               	.LVL303:
 2928 00b0 0895      		ret
 2929               	.L270:
  21:../../LUFA/Drivers/USB/LowLevel/Template/Template_Endpoint_Control_W.c **** 		else if (USB_DeviceState == DEVICE_STATE_Suspended)
 2930               		.loc 4 21 0
 2931 00b2 82E0      		ldi r24,lo8(2)
 2932 00b4 0895      		ret
 2933               		.cfi_endproc
 2934               	.LFE84:
 2936               		.section	.text.Endpoint_Write_Control_EStream_BE,"ax",@progbits
 2937               	.global	Endpoint_Write_Control_EStream_BE
 2939               	Endpoint_Write_Control_EStream_BE:
 2940               	.LFB85:
   3:../../LUFA/Drivers/USB/LowLevel/Template/Template_Endpoint_Control_W.c **** 	uint8_t* DataStream     = ((uint8_t*)Buffer + TEMPLATE_BUFFER_OFFSET(Length));
 2941               		.loc 4 3 0
 2942               		.cfi_startproc
 2943               	.LVL304:
 2944 0000 EF92      		push r14
 2945               	.LCFI88:
 2946               		.cfi_def_cfa_offset 3
 2947               		.cfi_offset 14, -2
 2948 0002 FF92      		push r15
 2949               	.LCFI89:
 2950               		.cfi_def_cfa_offset 4
 2951               		.cfi_offset 15, -3
 2952 0004 1F93      		push r17
 2953               	.LCFI90:
 2954               		.cfi_def_cfa_offset 5
 2955               		.cfi_offset 17, -4
 2956 0006 CF93      		push r28
 2957               	.LCFI91:
 2958               		.cfi_def_cfa_offset 6
 2959               		.cfi_offset 28, -5
 2960 0008 DF93      		push r29
 2961               	.LCFI92:
 2962               		.cfi_def_cfa_offset 7
 2963               		.cfi_offset 29, -6
 2964               	/* prologue: function */
 2965               	/* frame size = 0 */
 2966               	/* stack size = 5 */
 2967               	.L__stack_usage = 5
   4:../../LUFA/Drivers/USB/LowLevel/Template/Template_Endpoint_Control_W.c **** 	bool     LastPacketFull = false;
 2968               		.loc 4 4 0
 2969 000a 9B01      		movw r18,r22
 2970 000c 2150      		subi r18,1
 2971 000e 3109      		sbc r19,__zero_reg__
 2972 0010 820F      		add r24,r18
 2973 0012 931F      		adc r25,r19
 2974               	.LVL305:
   7:../../LUFA/Drivers/USB/LowLevel/Template/Template_Endpoint_Control_W.c **** 	  Length = USB_ControlRequest.wLength;
 2975               		.loc 4 7 0
 2976 0014 2091 0000 		lds r18,USB_ControlRequest+6
 2977 0018 3091 0000 		lds r19,USB_ControlRequest+6+1
 2978 001c 2617      		cp r18,r22
 2979 001e 3707      		cpc r19,r23
 2980 0020 00F0      		brlo .L293
   9:../../LUFA/Drivers/USB/LowLevel/Template/Template_Endpoint_Control_W.c **** 	  Endpoint_ClearIN();
 2981               		.loc 4 9 0
 2982 0022 6115      		cp r22,__zero_reg__
 2983 0024 7105      		cpc r23,__zero_reg__
 2984 0026 01F4      		brne .L282
 2985               	.LBB450:
 2986               	.LBB451:
 454:../../LUFA/Drivers/USB/LowLevel/Endpoint.h **** 				#else
 2987               		.loc 2 454 0
 2988 0028 2091 E800 		lds r18,232
 2989 002c 2E77      		andi r18,lo8(126)
 2990 002e 2093 E800 		sts 232,r18
 2991               	.LVL306:
 2992               	.L282:
 2993               	.LBE451:
 2994               	.LBE450:
 2995               	.LBB452:
  29:../../LUFA/Drivers/USB/LowLevel/Template/Template_Endpoint_Control_W.c **** 			{
 2996               		.loc 4 29 0
 2997 0032 20E0      		ldi r18,0
 2998               	.LVL307:
 2999               	.L286:
 3000               	.LBE452:
  12:../../LUFA/Drivers/USB/LowLevel/Template/Template_Endpoint_Control_W.c **** 	{
 3001               		.loc 4 12 0
 3002 0034 6115      		cp r22,__zero_reg__
 3003 0036 7105      		cpc r23,__zero_reg__
 3004 0038 01F4      		brne .L291
  12:../../LUFA/Drivers/USB/LowLevel/Template/Template_Endpoint_Control_W.c **** 	{
 3005               		.loc 4 12 0 is_stmt 0 discriminator 1
 3006 003a 2111      		cpse r18,__zero_reg__
 3007 003c 00C0      		rjmp .L291
 3008               	.LVL308:
 3009               	.L304:
 3010               	.LBB459:
 3011               	.LBB460:
 417:../../LUFA/Drivers/USB/LowLevel/Endpoint.h **** 			}
 3012               		.loc 2 417 0 is_stmt 1
 3013 003e 8091 E800 		lds r24,232
 3014               	.LBE460:
 3015               	.LBE459:
  41:../../LUFA/Drivers/USB/LowLevel/Template/Template_Endpoint_Control_W.c **** 	{
 3016               		.loc 4 41 0
 3017 0042 82FF      		sbrs r24,2
 3018 0044 00C0      		rjmp .L292
  49:../../LUFA/Drivers/USB/LowLevel/Template/Template_Endpoint_Control_W.c **** }
 3019               		.loc 4 49 0
 3020 0046 80E0      		ldi r24,0
 3021               	.L281:
 3022               	/* epilogue start */
 3023               		.loc 4 50 0
 3024 0048 DF91      		pop r29
 3025 004a CF91      		pop r28
 3026 004c 1F91      		pop r17
 3027 004e FF90      		pop r15
 3028 0050 EF90      		pop r14
 3029 0052 0895      		ret
 3030               	.LVL309:
 3031               	.L293:
 3032 0054 B901      		movw r22,r18
 3033               	.LVL310:
 3034 0056 00C0      		rjmp .L282
 3035               	.LVL311:
 3036               	.L291:
 3037               	.LBB461:
 3038               	.LBB462:
 429:../../LUFA/Drivers/USB/LowLevel/Endpoint.h **** 			}
 3039               		.loc 2 429 0
 3040 0058 3091 E800 		lds r19,232
 3041               	.LBE462:
 3042               	.LBE461:
  14:../../LUFA/Drivers/USB/LowLevel/Template/Template_Endpoint_Control_W.c **** 		  return ENDPOINT_RWCSTREAM_HostAborted;
 3043               		.loc 4 14 0
 3044 005c 33FD      		sbrc r19,3
 3045 005e 00C0      		rjmp .L294
 3046               	.LBB463:
 3047               	.LBB464:
 417:../../LUFA/Drivers/USB/LowLevel/Endpoint.h **** 			}
 3048               		.loc 2 417 0
 3049 0060 3091 E800 		lds r19,232
 3050               	.LBE464:
 3051               	.LBE463:
  17:../../LUFA/Drivers/USB/LowLevel/Template/Template_Endpoint_Control_W.c **** 		  break;
 3052               		.loc 4 17 0
 3053 0064 32FD      		sbrc r19,2
 3054 0066 00C0      		rjmp .L304
  20:../../LUFA/Drivers/USB/LowLevel/Template/Template_Endpoint_Control_W.c **** 		  return ENDPOINT_RWCSTREAM_DeviceDisconnected;
 3055               		.loc 4 20 0
 3056 0068 3EB3      		in r19,0x1e
 3057 006a 3323      		tst r19
 3058 006c 01F0      		breq .L297
  22:../../LUFA/Drivers/USB/LowLevel/Template/Template_Endpoint_Control_W.c **** 		  return ENDPOINT_RWCSTREAM_BusSuspended;
 3059               		.loc 4 22 0
 3060 006e 3EB3      		in r19,0x1e
 3061 0070 3530      		cpi r19,lo8(5)
 3062 0072 01F0      		breq .L298
 3063               	.LBB465:
 3064               	.LBB466:
 405:../../LUFA/Drivers/USB/LowLevel/Endpoint.h **** 			}
 3065               		.loc 2 405 0
 3066 0074 3091 E800 		lds r19,232
 3067               	.LBE466:
 3068               	.LBE465:
  25:../../LUFA/Drivers/USB/LowLevel/Template/Template_Endpoint_Control_W.c **** 		{
 3069               		.loc 4 25 0
 3070 0078 30FF      		sbrs r19,0
 3071 007a 00C0      		rjmp .L286
 3072               	.LBB467:
 3073               	.LBB453:
 3074               	.LBB454:
 266:../../LUFA/Drivers/USB/LowLevel/Endpoint.h **** 				#endif
 3075               		.loc 2 266 0
 3076 007c 1091 F200 		lds r17,242
 3077               	.LVL312:
 3078               	.LBE454:
 3079               	.LBE453:
  29:../../LUFA/Drivers/USB/LowLevel/Template/Template_Endpoint_Control_W.c **** 			{
 3080               		.loc 4 29 0
 3081 0080 EB01      		movw r28,r22
 3082 0082 7C01      		movw r14,r24
 3083 0084 E61A      		sub r14,r22
 3084 0086 F70A      		sbc r15,r23
 3085               	.LVL313:
 3086               	.L287:
 3087 0088 C701      		movw r24,r14
 3088 008a 8C0F      		add r24,r28
 3089 008c 9D1F      		adc r25,r29
 3090               	.LVL314:
 3091 008e 2097      		sbiw r28,0
 3092 0090 01F0      		breq .L288
  29:../../LUFA/Drivers/USB/LowLevel/Template/Template_Endpoint_Control_W.c **** 			{
 3093               		.loc 4 29 0 is_stmt 0 discriminator 1
 3094 0092 1830      		cpi r17,lo8(8)
 3095 0094 00F0      		brlo .L289
 3096               	.L288:
  36:../../LUFA/Drivers/USB/LowLevel/Template/Template_Endpoint_Control_W.c **** 			Endpoint_ClearIN();
 3097               		.loc 4 36 0 is_stmt 1
 3098 0096 21E0      		ldi r18,lo8(1)
 3099 0098 1830      		cpi r17,lo8(8)
 3100 009a 01F0      		breq .L290
 3101 009c 20E0      		ldi r18,0
 3102               	.L290:
 3103               	.LVL315:
 3104               	.LBB455:
 3105               	.LBB456:
 454:../../LUFA/Drivers/USB/LowLevel/Endpoint.h **** 				#else
 3106               		.loc 2 454 0
 3107 009e 3091 E800 		lds r19,232
 3108 00a2 3E77      		andi r19,lo8(126)
 3109 00a4 3093 E800 		sts 232,r19
 3110 00a8 BE01      		movw r22,r28
 3111 00aa 00C0      		rjmp .L286
 3112               	.LVL316:
 3113               	.L289:
 3114               	.LBE456:
 3115               	.LBE455:
  31:../../LUFA/Drivers/USB/LowLevel/Template/Template_Endpoint_Control_W.c **** 				Length--;
 3116               		.loc 4 31 0
 3117 00ac 0E94 0000 		call eeprom_read_byte
 3118               	.LVL317:
 3119               	.LBB457:
 3120               	.LBB458:
 562:../../LUFA/Drivers/USB/LowLevel/Endpoint.h **** 			}
 3121               		.loc 2 562 0
 3122 00b0 8093 F100 		sts 241,r24
 3123               	.LVL318:
 3124               	.LBE458:
 3125               	.LBE457:
  32:../../LUFA/Drivers/USB/LowLevel/Template/Template_Endpoint_Control_W.c **** 				BytesInEndpoint++;
 3126               		.loc 4 32 0
 3127 00b4 2197      		sbiw r28,1
 3128               	.LVL319:
  33:../../LUFA/Drivers/USB/LowLevel/Template/Template_Endpoint_Control_W.c **** 			}
 3129               		.loc 4 33 0
 3130 00b6 1F5F      		subi r17,lo8(-(1))
 3131               	.LVL320:
 3132 00b8 00C0      		rjmp .L287
 3133               	.LVL321:
 3134               	.L292:
 3135               	.LBE467:
  43:../../LUFA/Drivers/USB/LowLevel/Template/Template_Endpoint_Control_W.c **** 		  return ENDPOINT_RWCSTREAM_DeviceDisconnected;
 3136               		.loc 4 43 0
 3137 00ba 8EB3      		in r24,0x1e
 3138 00bc 8823      		tst r24
 3139 00be 01F0      		breq .L297
  45:../../LUFA/Drivers/USB/LowLevel/Template/Template_Endpoint_Control_W.c **** 		  return ENDPOINT_RWCSTREAM_BusSuspended;
 3140               		.loc 4 45 0
 3141 00c0 8EB3      		in r24,0x1e
 3142 00c2 8530      		cpi r24,lo8(5)
 3143 00c4 01F0      		breq .+2
 3144 00c6 00C0      		rjmp .L304
 3145               	.L298:
  23:../../LUFA/Drivers/USB/LowLevel/Template/Template_Endpoint_Control_W.c **** 		  
 3146               		.loc 4 23 0
 3147 00c8 83E0      		ldi r24,lo8(3)
 3148 00ca 00C0      		rjmp .L281
 3149               	.LVL322:
 3150               	.L294:
  15:../../LUFA/Drivers/USB/LowLevel/Template/Template_Endpoint_Control_W.c **** 
 3151               		.loc 4 15 0
 3152 00cc 81E0      		ldi r24,lo8(1)
 3153               	.LVL323:
 3154 00ce 00C0      		rjmp .L281
 3155               	.L297:
  21:../../LUFA/Drivers/USB/LowLevel/Template/Template_Endpoint_Control_W.c **** 		else if (USB_DeviceState == DEVICE_STATE_Suspended)
 3156               		.loc 4 21 0
 3157 00d0 82E0      		ldi r24,lo8(2)
 3158 00d2 00C0      		rjmp .L281
 3159               		.cfi_endproc
 3160               	.LFE85:
 3162               		.section	.text.Endpoint_Read_Control_Stream_LE,"ax",@progbits
 3163               	.global	Endpoint_Read_Control_Stream_LE
 3165               	Endpoint_Read_Control_Stream_LE:
 3166               	.LFB86:
 3167               		.file 5 "../../LUFA/Drivers/USB/LowLevel/Template/Template_Endpoint_Control_R.c"
   1:../../LUFA/Drivers/USB/LowLevel/Template/Template_Endpoint_Control_R.c **** uint8_t TEMPLATE_FUNC_NAME (void* Buffer,
   2:../../LUFA/Drivers/USB/LowLevel/Template/Template_Endpoint_Control_R.c ****                             uint16_t Length)
   3:../../LUFA/Drivers/USB/LowLevel/Template/Template_Endpoint_Control_R.c **** {
 3168               		.loc 5 3 0
 3169               		.cfi_startproc
 3170               	.LVL324:
 3171               	/* prologue: function */
 3172               	/* frame size = 0 */
 3173               	/* stack size = 0 */
 3174               	.L__stack_usage = 0
   4:../../LUFA/Drivers/USB/LowLevel/Template/Template_Endpoint_Control_R.c **** 	uint8_t* DataStream = ((uint8_t*)Buffer + TEMPLATE_BUFFER_OFFSET(Length));
   5:../../LUFA/Drivers/USB/LowLevel/Template/Template_Endpoint_Control_R.c **** 	
   6:../../LUFA/Drivers/USB/LowLevel/Template/Template_Endpoint_Control_R.c **** 	if (!(Length))
 3175               		.loc 5 6 0
 3176 0000 6115      		cp r22,__zero_reg__
 3177 0002 7105      		cpc r23,__zero_reg__
 3178 0004 01F4      		brne .L313
 3179               	.LVL325:
 3180               	.L314:
 3181               	.LBB468:
 3182               	.LBB469:
 469:../../LUFA/Drivers/USB/LowLevel/Endpoint.h **** 				#else
 3183               		.loc 2 469 0
 3184 0006 2091 E800 		lds r18,232
 3185 000a 2B77      		andi r18,lo8(123)
 3186 000c 2093 E800 		sts 232,r18
 3187               	.L313:
 3188               	.LBE469:
 3189               	.LBE468:
   7:../../LUFA/Drivers/USB/LowLevel/Template/Template_Endpoint_Control_R.c **** 	  Endpoint_ClearOUT();
   8:../../LUFA/Drivers/USB/LowLevel/Template/Template_Endpoint_Control_R.c **** 	
   9:../../LUFA/Drivers/USB/LowLevel/Template/Template_Endpoint_Control_R.c **** 	while (Length)
 3190               		.loc 5 9 0
 3191 0010 6115      		cp r22,__zero_reg__
 3192 0012 7105      		cpc r23,__zero_reg__
 3193 0014 01F4      		brne .L316
 3194               	.LVL326:
 3195               	.L317:
 3196               	.LBB470:
 3197               	.LBB471:
 405:../../LUFA/Drivers/USB/LowLevel/Endpoint.h **** 			}
 3198               		.loc 2 405 0
 3199 0016 8091 E800 		lds r24,232
 3200               	.LBE471:
 3201               	.LBE470:
  10:../../LUFA/Drivers/USB/LowLevel/Template/Template_Endpoint_Control_R.c **** 	{
  11:../../LUFA/Drivers/USB/LowLevel/Template/Template_Endpoint_Control_R.c **** 		if (Endpoint_IsSETUPReceived())
  12:../../LUFA/Drivers/USB/LowLevel/Template/Template_Endpoint_Control_R.c **** 		  return ENDPOINT_RWCSTREAM_HostAborted;
  13:../../LUFA/Drivers/USB/LowLevel/Template/Template_Endpoint_Control_R.c **** 
  14:../../LUFA/Drivers/USB/LowLevel/Template/Template_Endpoint_Control_R.c **** 		if (USB_DeviceState == DEVICE_STATE_Unattached)
  15:../../LUFA/Drivers/USB/LowLevel/Template/Template_Endpoint_Control_R.c **** 		  return ENDPOINT_RWCSTREAM_DeviceDisconnected;
  16:../../LUFA/Drivers/USB/LowLevel/Template/Template_Endpoint_Control_R.c **** 		else if (USB_DeviceState == DEVICE_STATE_Suspended)
  17:../../LUFA/Drivers/USB/LowLevel/Template/Template_Endpoint_Control_R.c **** 		  return ENDPOINT_RWCSTREAM_BusSuspended;
  18:../../LUFA/Drivers/USB/LowLevel/Template/Template_Endpoint_Control_R.c **** 		  
  19:../../LUFA/Drivers/USB/LowLevel/Template/Template_Endpoint_Control_R.c **** 		if (Endpoint_IsOUTReceived())
  20:../../LUFA/Drivers/USB/LowLevel/Template/Template_Endpoint_Control_R.c **** 		{
  21:../../LUFA/Drivers/USB/LowLevel/Template/Template_Endpoint_Control_R.c **** 			while (Length && Endpoint_BytesInEndpoint())
  22:../../LUFA/Drivers/USB/LowLevel/Template/Template_Endpoint_Control_R.c **** 			{
  23:../../LUFA/Drivers/USB/LowLevel/Template/Template_Endpoint_Control_R.c **** 				TEMPLATE_TRANSFER_BYTE(DataStream);
  24:../../LUFA/Drivers/USB/LowLevel/Template/Template_Endpoint_Control_R.c **** 				Length--;
  25:../../LUFA/Drivers/USB/LowLevel/Template/Template_Endpoint_Control_R.c **** 			}
  26:../../LUFA/Drivers/USB/LowLevel/Template/Template_Endpoint_Control_R.c **** 			
  27:../../LUFA/Drivers/USB/LowLevel/Template/Template_Endpoint_Control_R.c **** 			Endpoint_ClearOUT();
  28:../../LUFA/Drivers/USB/LowLevel/Template/Template_Endpoint_Control_R.c **** 		}		  
  29:../../LUFA/Drivers/USB/LowLevel/Template/Template_Endpoint_Control_R.c **** 	}
  30:../../LUFA/Drivers/USB/LowLevel/Template/Template_Endpoint_Control_R.c **** 	
  31:../../LUFA/Drivers/USB/LowLevel/Template/Template_Endpoint_Control_R.c **** 	while (!(Endpoint_IsINReady()))
 3202               		.loc 5 31 0
 3203 001a 80FF      		sbrs r24,0
 3204 001c 00C0      		rjmp .L318
  32:../../LUFA/Drivers/USB/LowLevel/Template/Template_Endpoint_Control_R.c **** 	{
  33:../../LUFA/Drivers/USB/LowLevel/Template/Template_Endpoint_Control_R.c **** 		if (USB_DeviceState == DEVICE_STATE_Unattached)
  34:../../LUFA/Drivers/USB/LowLevel/Template/Template_Endpoint_Control_R.c **** 		  return ENDPOINT_RWCSTREAM_DeviceDisconnected;
  35:../../LUFA/Drivers/USB/LowLevel/Template/Template_Endpoint_Control_R.c **** 		else if (USB_DeviceState == DEVICE_STATE_Suspended)
  36:../../LUFA/Drivers/USB/LowLevel/Template/Template_Endpoint_Control_R.c **** 		  return ENDPOINT_RWCSTREAM_BusSuspended;
  37:../../LUFA/Drivers/USB/LowLevel/Template/Template_Endpoint_Control_R.c **** 	}
  38:../../LUFA/Drivers/USB/LowLevel/Template/Template_Endpoint_Control_R.c **** 	
  39:../../LUFA/Drivers/USB/LowLevel/Template/Template_Endpoint_Control_R.c **** 	return ENDPOINT_RWCSTREAM_NoError;
 3205               		.loc 5 39 0
 3206 001e 80E0      		ldi r24,0
 3207 0020 0895      		ret
 3208               	.LVL327:
 3209               	.L316:
 3210               	.LBB472:
 3211               	.LBB473:
 429:../../LUFA/Drivers/USB/LowLevel/Endpoint.h **** 			}
 3212               		.loc 2 429 0
 3213 0022 2091 E800 		lds r18,232
 3214               	.LBE473:
 3215               	.LBE472:
  11:../../LUFA/Drivers/USB/LowLevel/Template/Template_Endpoint_Control_R.c **** 		  return ENDPOINT_RWCSTREAM_HostAborted;
 3216               		.loc 5 11 0
 3217 0026 23FD      		sbrc r18,3
 3218 0028 00C0      		rjmp .L319
  14:../../LUFA/Drivers/USB/LowLevel/Template/Template_Endpoint_Control_R.c **** 		  return ENDPOINT_RWCSTREAM_DeviceDisconnected;
 3219               		.loc 5 14 0
 3220 002a 2EB3      		in r18,0x1e
 3221 002c 2223      		tst r18
 3222 002e 01F0      		breq .L323
  16:../../LUFA/Drivers/USB/LowLevel/Template/Template_Endpoint_Control_R.c **** 		  return ENDPOINT_RWCSTREAM_BusSuspended;
 3223               		.loc 5 16 0
 3224 0030 2EB3      		in r18,0x1e
 3225 0032 2530      		cpi r18,lo8(5)
 3226 0034 01F0      		breq .L324
 3227               	.LBB474:
 3228               	.LBB475:
 417:../../LUFA/Drivers/USB/LowLevel/Endpoint.h **** 			}
 3229               		.loc 2 417 0
 3230 0036 2091 E800 		lds r18,232
 3231               	.LBE475:
 3232               	.LBE474:
  19:../../LUFA/Drivers/USB/LowLevel/Template/Template_Endpoint_Control_R.c **** 		{
 3233               		.loc 5 19 0
 3234 003a 22FF      		sbrs r18,2
 3235 003c 00C0      		rjmp .L313
 3236               	.L312:
 3237               	.LBB476:
 3238               	.LBB477:
 266:../../LUFA/Drivers/USB/LowLevel/Endpoint.h **** 				#endif
 3239               		.loc 2 266 0
 3240 003e 2091 F200 		lds r18,242
 3241               	.LBE477:
 3242               	.LBE476:
  21:../../LUFA/Drivers/USB/LowLevel/Template/Template_Endpoint_Control_R.c **** 			{
 3243               		.loc 5 21 0
 3244 0042 2223      		tst r18
 3245 0044 01F0      		breq .L314
  23:../../LUFA/Drivers/USB/LowLevel/Template/Template_Endpoint_Control_R.c **** 				Length--;
 3246               		.loc 5 23 0
 3247 0046 9C01      		movw r18,r24
 3248 0048 2F5F      		subi r18,-1
 3249 004a 3F4F      		sbci r19,-1
 3250               	.LVL328:
 3251               	.LBB478:
 3252               	.LBB479:
 550:../../LUFA/Drivers/USB/LowLevel/Endpoint.h **** 			}
 3253               		.loc 2 550 0
 3254 004c 4091 F100 		lds r20,241
 3255               	.LBE479:
 3256               	.LBE478:
  23:../../LUFA/Drivers/USB/LowLevel/Template/Template_Endpoint_Control_R.c **** 				Length--;
 3257               		.loc 5 23 0
 3258 0050 FC01      		movw r30,r24
 3259 0052 4083      		st Z,r20
  24:../../LUFA/Drivers/USB/LowLevel/Template/Template_Endpoint_Control_R.c **** 			}
 3260               		.loc 5 24 0
 3261 0054 6150      		subi r22,1
 3262 0056 7109      		sbc r23,__zero_reg__
 3263               	.LVL329:
  23:../../LUFA/Drivers/USB/LowLevel/Template/Template_Endpoint_Control_R.c **** 				Length--;
 3264               		.loc 5 23 0
 3265 0058 C901      		movw r24,r18
  21:../../LUFA/Drivers/USB/LowLevel/Template/Template_Endpoint_Control_R.c **** 			{
 3266               		.loc 5 21 0
 3267 005a 01F4      		brne .L312
 3268 005c 00C0      		rjmp .L314
 3269               	.LVL330:
 3270               	.L318:
  33:../../LUFA/Drivers/USB/LowLevel/Template/Template_Endpoint_Control_R.c **** 		  return ENDPOINT_RWCSTREAM_DeviceDisconnected;
 3271               		.loc 5 33 0
 3272 005e 8EB3      		in r24,0x1e
 3273 0060 8823      		tst r24
 3274 0062 01F0      		breq .L323
  35:../../LUFA/Drivers/USB/LowLevel/Template/Template_Endpoint_Control_R.c **** 		  return ENDPOINT_RWCSTREAM_BusSuspended;
 3275               		.loc 5 35 0
 3276 0064 8EB3      		in r24,0x1e
 3277 0066 8530      		cpi r24,lo8(5)
 3278 0068 01F4      		brne .L317
 3279               	.L324:
  17:../../LUFA/Drivers/USB/LowLevel/Template/Template_Endpoint_Control_R.c **** 		  
 3280               		.loc 5 17 0
 3281 006a 83E0      		ldi r24,lo8(3)
 3282               	/* epilogue start */
  40:../../LUFA/Drivers/USB/LowLevel/Template/Template_Endpoint_Control_R.c **** }
 3283               		.loc 5 40 0
 3284 006c 0895      		ret
 3285               	.LVL331:
 3286               	.L319:
  12:../../LUFA/Drivers/USB/LowLevel/Template/Template_Endpoint_Control_R.c **** 
 3287               		.loc 5 12 0
 3288 006e 81E0      		ldi r24,lo8(1)
 3289               	.LVL332:
 3290 0070 0895      		ret
 3291               	.L323:
  15:../../LUFA/Drivers/USB/LowLevel/Template/Template_Endpoint_Control_R.c **** 		else if (USB_DeviceState == DEVICE_STATE_Suspended)
 3292               		.loc 5 15 0
 3293 0072 82E0      		ldi r24,lo8(2)
 3294 0074 0895      		ret
 3295               		.cfi_endproc
 3296               	.LFE86:
 3298               		.section	.text.Endpoint_Read_Control_EStream_LE,"ax",@progbits
 3299               	.global	Endpoint_Read_Control_EStream_LE
 3301               	Endpoint_Read_Control_EStream_LE:
 3302               	.LFB87:
   3:../../LUFA/Drivers/USB/LowLevel/Template/Template_Endpoint_Control_R.c **** 	uint8_t* DataStream = ((uint8_t*)Buffer + TEMPLATE_BUFFER_OFFSET(Length));
 3303               		.loc 5 3 0
 3304               		.cfi_startproc
 3305               	.LVL333:
 3306 0000 0F93      		push r16
 3307               	.LCFI93:
 3308               		.cfi_def_cfa_offset 3
 3309               		.cfi_offset 16, -2
 3310 0002 1F93      		push r17
 3311               	.LCFI94:
 3312               		.cfi_def_cfa_offset 4
 3313               		.cfi_offset 17, -3
 3314 0004 CF93      		push r28
 3315               	.LCFI95:
 3316               		.cfi_def_cfa_offset 5
 3317               		.cfi_offset 28, -4
 3318 0006 DF93      		push r29
 3319               	.LCFI96:
 3320               		.cfi_def_cfa_offset 6
 3321               		.cfi_offset 29, -5
 3322               	/* prologue: function */
 3323               	/* frame size = 0 */
 3324               	/* stack size = 4 */
 3325               	.L__stack_usage = 4
 3326 0008 EB01      		movw r28,r22
 3327               	.LVL334:
   6:../../LUFA/Drivers/USB/LowLevel/Template/Template_Endpoint_Control_R.c **** 	  Endpoint_ClearOUT();
 3328               		.loc 5 6 0
 3329 000a 2097      		sbiw r28,0
 3330 000c 01F4      		brne .L331
 3331               	.LBB480:
 3332               	.LBB481:
 469:../../LUFA/Drivers/USB/LowLevel/Endpoint.h **** 				#else
 3333               		.loc 2 469 0
 3334 000e 2091 E800 		lds r18,232
 3335 0012 2B77      		andi r18,lo8(123)
 3336 0014 2093 E800 		sts 232,r18
 3337               	.LVL335:
 3338               	.L331:
 3339               	.LBE481:
 3340               	.LBE480:
   9:../../LUFA/Drivers/USB/LowLevel/Template/Template_Endpoint_Control_R.c **** 	{
 3341               		.loc 5 9 0
 3342 0018 2097      		sbiw r28,0
 3343 001a 01F4      		brne .L334
 3344               	.LVL336:
 3345               	.L335:
 3346               	.LBB482:
 3347               	.LBB483:
 405:../../LUFA/Drivers/USB/LowLevel/Endpoint.h **** 			}
 3348               		.loc 2 405 0
 3349 001c 8091 E800 		lds r24,232
 3350               	.LBE483:
 3351               	.LBE482:
  31:../../LUFA/Drivers/USB/LowLevel/Template/Template_Endpoint_Control_R.c **** 	{
 3352               		.loc 5 31 0
 3353 0020 80FF      		sbrs r24,0
 3354 0022 00C0      		rjmp .L336
  39:../../LUFA/Drivers/USB/LowLevel/Template/Template_Endpoint_Control_R.c **** }
 3355               		.loc 5 39 0
 3356 0024 80E0      		ldi r24,0
 3357               	.L326:
 3358               	/* epilogue start */
 3359               		.loc 5 40 0
 3360 0026 DF91      		pop r29
 3361 0028 CF91      		pop r28
 3362               	.LVL337:
 3363 002a 1F91      		pop r17
 3364 002c 0F91      		pop r16
 3365 002e 0895      		ret
 3366               	.LVL338:
 3367               	.L334:
 3368               	.LBB484:
 3369               	.LBB485:
 429:../../LUFA/Drivers/USB/LowLevel/Endpoint.h **** 			}
 3370               		.loc 2 429 0
 3371 0030 2091 E800 		lds r18,232
 3372               	.LBE485:
 3373               	.LBE484:
  11:../../LUFA/Drivers/USB/LowLevel/Template/Template_Endpoint_Control_R.c **** 		  return ENDPOINT_RWCSTREAM_HostAborted;
 3374               		.loc 5 11 0
 3375 0034 23FD      		sbrc r18,3
 3376 0036 00C0      		rjmp .L337
  14:../../LUFA/Drivers/USB/LowLevel/Template/Template_Endpoint_Control_R.c **** 		  return ENDPOINT_RWCSTREAM_DeviceDisconnected;
 3377               		.loc 5 14 0
 3378 0038 2EB3      		in r18,0x1e
 3379 003a 2223      		tst r18
 3380 003c 01F0      		breq .L340
  16:../../LUFA/Drivers/USB/LowLevel/Template/Template_Endpoint_Control_R.c **** 		  return ENDPOINT_RWCSTREAM_BusSuspended;
 3381               		.loc 5 16 0
 3382 003e 2EB3      		in r18,0x1e
 3383 0040 2530      		cpi r18,lo8(5)
 3384 0042 01F0      		breq .L341
 3385               	.LBB486:
 3386               	.LBB487:
 417:../../LUFA/Drivers/USB/LowLevel/Endpoint.h **** 			}
 3387               		.loc 2 417 0
 3388 0044 2091 E800 		lds r18,232
 3389               	.LBE487:
 3390               	.LBE486:
  19:../../LUFA/Drivers/USB/LowLevel/Template/Template_Endpoint_Control_R.c **** 		{
 3391               		.loc 5 19 0
 3392 0048 22FF      		sbrs r18,2
 3393 004a 00C0      		rjmp .L331
 3394               	.L330:
 3395               	.LBB488:
 3396               	.LBB489:
 266:../../LUFA/Drivers/USB/LowLevel/Endpoint.h **** 				#endif
 3397               		.loc 2 266 0
 3398 004c 2091 F200 		lds r18,242
 3399               	.LBE489:
 3400               	.LBE488:
  21:../../LUFA/Drivers/USB/LowLevel/Template/Template_Endpoint_Control_R.c **** 			{
 3401               		.loc 5 21 0
 3402 0050 2111      		cpse r18,__zero_reg__
 3403 0052 00C0      		rjmp .L333
 3404 0054 8C01      		movw r16,r24
 3405               	.LVL339:
 3406               	.L332:
 3407               	.LBB490:
 3408               	.LBB491:
 469:../../LUFA/Drivers/USB/LowLevel/Endpoint.h **** 				#else
 3409               		.loc 2 469 0
 3410 0056 8091 E800 		lds r24,232
 3411 005a 8B77      		andi r24,lo8(123)
 3412 005c 8093 E800 		sts 232,r24
 3413 0060 C801      		movw r24,r16
 3414 0062 00C0      		rjmp .L331
 3415               	.LVL340:
 3416               	.L333:
 3417               	.LBE491:
 3418               	.LBE490:
 3419               	.LBB492:
 3420               	.LBB493:
 550:../../LUFA/Drivers/USB/LowLevel/Endpoint.h **** 			}
 3421               		.loc 2 550 0
 3422 0064 6091 F100 		lds r22,241
 3423               	.LBE493:
 3424               	.LBE492:
  23:../../LUFA/Drivers/USB/LowLevel/Template/Template_Endpoint_Control_R.c **** 				Length--;
 3425               		.loc 5 23 0
 3426 0068 8C01      		movw r16,r24
 3427 006a 0F5F      		subi r16,-1
 3428 006c 1F4F      		sbci r17,-1
 3429               	.LVL341:
 3430 006e 0E94 0000 		call eeprom_update_byte
 3431               	.LVL342:
  24:../../LUFA/Drivers/USB/LowLevel/Template/Template_Endpoint_Control_R.c **** 			}
 3432               		.loc 5 24 0
 3433 0072 2197      		sbiw r28,1
 3434               	.LVL343:
  21:../../LUFA/Drivers/USB/LowLevel/Template/Template_Endpoint_Control_R.c **** 			{
 3435               		.loc 5 21 0
 3436 0074 01F0      		breq .L332
  23:../../LUFA/Drivers/USB/LowLevel/Template/Template_Endpoint_Control_R.c **** 				Length--;
 3437               		.loc 5 23 0
 3438 0076 C801      		movw r24,r16
 3439 0078 00C0      		rjmp .L330
 3440               	.LVL344:
 3441               	.L336:
  33:../../LUFA/Drivers/USB/LowLevel/Template/Template_Endpoint_Control_R.c **** 		  return ENDPOINT_RWCSTREAM_DeviceDisconnected;
 3442               		.loc 5 33 0
 3443 007a 8EB3      		in r24,0x1e
 3444 007c 8823      		tst r24
 3445 007e 01F0      		breq .L340
  35:../../LUFA/Drivers/USB/LowLevel/Template/Template_Endpoint_Control_R.c **** 		  return ENDPOINT_RWCSTREAM_BusSuspended;
 3446               		.loc 5 35 0
 3447 0080 8EB3      		in r24,0x1e
 3448 0082 8530      		cpi r24,lo8(5)
 3449 0084 01F4      		brne .L335
 3450               	.L341:
  17:../../LUFA/Drivers/USB/LowLevel/Template/Template_Endpoint_Control_R.c **** 		  
 3451               		.loc 5 17 0
 3452 0086 83E0      		ldi r24,lo8(3)
 3453 0088 00C0      		rjmp .L326
 3454               	.LVL345:
 3455               	.L337:
  12:../../LUFA/Drivers/USB/LowLevel/Template/Template_Endpoint_Control_R.c **** 
 3456               		.loc 5 12 0
 3457 008a 81E0      		ldi r24,lo8(1)
 3458               	.LVL346:
 3459 008c 00C0      		rjmp .L326
 3460               	.L340:
  15:../../LUFA/Drivers/USB/LowLevel/Template/Template_Endpoint_Control_R.c **** 		else if (USB_DeviceState == DEVICE_STATE_Suspended)
 3461               		.loc 5 15 0
 3462 008e 82E0      		ldi r24,lo8(2)
 3463 0090 00C0      		rjmp .L326
 3464               		.cfi_endproc
 3465               	.LFE87:
 3467               		.section	.text.Endpoint_Read_Control_Stream_BE,"ax",@progbits
 3468               	.global	Endpoint_Read_Control_Stream_BE
 3470               	Endpoint_Read_Control_Stream_BE:
 3471               	.LFB88:
   3:../../LUFA/Drivers/USB/LowLevel/Template/Template_Endpoint_Control_R.c **** 	uint8_t* DataStream = ((uint8_t*)Buffer + TEMPLATE_BUFFER_OFFSET(Length));
 3472               		.loc 5 3 0
 3473               		.cfi_startproc
 3474               	.LVL347:
 3475               	/* prologue: function */
 3476               	/* frame size = 0 */
 3477               	/* stack size = 0 */
 3478               	.L__stack_usage = 0
   4:../../LUFA/Drivers/USB/LowLevel/Template/Template_Endpoint_Control_R.c **** 	
 3479               		.loc 5 4 0
 3480 0000 9B01      		movw r18,r22
 3481 0002 2150      		subi r18,1
 3482 0004 3109      		sbc r19,__zero_reg__
 3483 0006 820F      		add r24,r18
 3484 0008 931F      		adc r25,r19
 3485               	.LVL348:
   6:../../LUFA/Drivers/USB/LowLevel/Template/Template_Endpoint_Control_R.c **** 	  Endpoint_ClearOUT();
 3486               		.loc 5 6 0
 3487 000a 6115      		cp r22,__zero_reg__
 3488 000c 7105      		cpc r23,__zero_reg__
 3489 000e 01F4      		brne .L351
 3490               	.L352:
 3491               	.LBB494:
 3492               	.LBB495:
 469:../../LUFA/Drivers/USB/LowLevel/Endpoint.h **** 				#else
 3493               		.loc 2 469 0
 3494 0010 2091 E800 		lds r18,232
 3495 0014 2B77      		andi r18,lo8(123)
 3496 0016 2093 E800 		sts 232,r18
 3497               	.L351:
 3498               	.LBE495:
 3499               	.LBE494:
   9:../../LUFA/Drivers/USB/LowLevel/Template/Template_Endpoint_Control_R.c **** 	{
 3500               		.loc 5 9 0
 3501 001a 6115      		cp r22,__zero_reg__
 3502 001c 7105      		cpc r23,__zero_reg__
 3503 001e 01F4      		brne .L354
 3504               	.LVL349:
 3505               	.L355:
 3506               	.LBB496:
 3507               	.LBB497:
 405:../../LUFA/Drivers/USB/LowLevel/Endpoint.h **** 			}
 3508               		.loc 2 405 0
 3509 0020 8091 E800 		lds r24,232
 3510               	.LBE497:
 3511               	.LBE496:
  31:../../LUFA/Drivers/USB/LowLevel/Template/Template_Endpoint_Control_R.c **** 	{
 3512               		.loc 5 31 0
 3513 0024 80FF      		sbrs r24,0
 3514 0026 00C0      		rjmp .L356
  39:../../LUFA/Drivers/USB/LowLevel/Template/Template_Endpoint_Control_R.c **** }
 3515               		.loc 5 39 0
 3516 0028 80E0      		ldi r24,0
 3517 002a 0895      		ret
 3518               	.LVL350:
 3519               	.L354:
 3520               	.LBB498:
 3521               	.LBB499:
 429:../../LUFA/Drivers/USB/LowLevel/Endpoint.h **** 			}
 3522               		.loc 2 429 0
 3523 002c 2091 E800 		lds r18,232
 3524               	.LBE499:
 3525               	.LBE498:
  11:../../LUFA/Drivers/USB/LowLevel/Template/Template_Endpoint_Control_R.c **** 		  return ENDPOINT_RWCSTREAM_HostAborted;
 3526               		.loc 5 11 0
 3527 0030 23FD      		sbrc r18,3
 3528 0032 00C0      		rjmp .L357
  14:../../LUFA/Drivers/USB/LowLevel/Template/Template_Endpoint_Control_R.c **** 		  return ENDPOINT_RWCSTREAM_DeviceDisconnected;
 3529               		.loc 5 14 0
 3530 0034 2EB3      		in r18,0x1e
 3531 0036 2223      		tst r18
 3532 0038 01F0      		breq .L360
  16:../../LUFA/Drivers/USB/LowLevel/Template/Template_Endpoint_Control_R.c **** 		  return ENDPOINT_RWCSTREAM_BusSuspended;
 3533               		.loc 5 16 0
 3534 003a 2EB3      		in r18,0x1e
 3535 003c 2530      		cpi r18,lo8(5)
 3536 003e 01F0      		breq .L361
 3537               	.LBB500:
 3538               	.LBB501:
 417:../../LUFA/Drivers/USB/LowLevel/Endpoint.h **** 			}
 3539               		.loc 2 417 0
 3540 0040 2091 E800 		lds r18,232
 3541               	.LBE501:
 3542               	.LBE500:
  19:../../LUFA/Drivers/USB/LowLevel/Template/Template_Endpoint_Control_R.c **** 		{
 3543               		.loc 5 19 0
 3544 0044 22FF      		sbrs r18,2
 3545 0046 00C0      		rjmp .L351
 3546               	.L350:
 3547               	.LBB502:
 3548               	.LBB503:
 266:../../LUFA/Drivers/USB/LowLevel/Endpoint.h **** 				#endif
 3549               		.loc 2 266 0
 3550 0048 2091 F200 		lds r18,242
 3551               	.LBE503:
 3552               	.LBE502:
  21:../../LUFA/Drivers/USB/LowLevel/Template/Template_Endpoint_Control_R.c **** 			{
 3553               		.loc 5 21 0
 3554 004c 2223      		tst r18
 3555 004e 01F0      		breq .L352
  23:../../LUFA/Drivers/USB/LowLevel/Template/Template_Endpoint_Control_R.c **** 				Length--;
 3556               		.loc 5 23 0
 3557 0050 0197      		sbiw r24,1
 3558               	.LVL351:
 3559               	.LBB504:
 3560               	.LBB505:
 550:../../LUFA/Drivers/USB/LowLevel/Endpoint.h **** 			}
 3561               		.loc 2 550 0
 3562 0052 2091 F100 		lds r18,241
 3563               	.LBE505:
 3564               	.LBE504:
  23:../../LUFA/Drivers/USB/LowLevel/Template/Template_Endpoint_Control_R.c **** 				Length--;
 3565               		.loc 5 23 0
 3566 0056 FC01      		movw r30,r24
 3567 0058 2183      		std Z+1,r18
  24:../../LUFA/Drivers/USB/LowLevel/Template/Template_Endpoint_Control_R.c **** 			}
 3568               		.loc 5 24 0
 3569 005a 6150      		subi r22,1
 3570 005c 7109      		sbc r23,__zero_reg__
 3571               	.LVL352:
  21:../../LUFA/Drivers/USB/LowLevel/Template/Template_Endpoint_Control_R.c **** 			{
 3572               		.loc 5 21 0
 3573 005e 01F4      		brne .L350
 3574 0060 00C0      		rjmp .L352
 3575               	.LVL353:
 3576               	.L356:
  33:../../LUFA/Drivers/USB/LowLevel/Template/Template_Endpoint_Control_R.c **** 		  return ENDPOINT_RWCSTREAM_DeviceDisconnected;
 3577               		.loc 5 33 0
 3578 0062 8EB3      		in r24,0x1e
 3579 0064 8823      		tst r24
 3580 0066 01F0      		breq .L360
  35:../../LUFA/Drivers/USB/LowLevel/Template/Template_Endpoint_Control_R.c **** 		  return ENDPOINT_RWCSTREAM_BusSuspended;
 3581               		.loc 5 35 0
 3582 0068 8EB3      		in r24,0x1e
 3583 006a 8530      		cpi r24,lo8(5)
 3584 006c 01F4      		brne .L355
 3585               	.L361:
  17:../../LUFA/Drivers/USB/LowLevel/Template/Template_Endpoint_Control_R.c **** 		  
 3586               		.loc 5 17 0
 3587 006e 83E0      		ldi r24,lo8(3)
 3588               	/* epilogue start */
 3589               		.loc 5 40 0
 3590 0070 0895      		ret
 3591               	.LVL354:
 3592               	.L357:
  12:../../LUFA/Drivers/USB/LowLevel/Template/Template_Endpoint_Control_R.c **** 
 3593               		.loc 5 12 0
 3594 0072 81E0      		ldi r24,lo8(1)
 3595               	.LVL355:
 3596 0074 0895      		ret
 3597               	.L360:
  15:../../LUFA/Drivers/USB/LowLevel/Template/Template_Endpoint_Control_R.c **** 		else if (USB_DeviceState == DEVICE_STATE_Suspended)
 3598               		.loc 5 15 0
 3599 0076 82E0      		ldi r24,lo8(2)
 3600 0078 0895      		ret
 3601               		.cfi_endproc
 3602               	.LFE88:
 3604               		.section	.text.Endpoint_Read_Control_EStream_BE,"ax",@progbits
 3605               	.global	Endpoint_Read_Control_EStream_BE
 3607               	Endpoint_Read_Control_EStream_BE:
 3608               	.LFB89:
   3:../../LUFA/Drivers/USB/LowLevel/Template/Template_Endpoint_Control_R.c **** 	uint8_t* DataStream = ((uint8_t*)Buffer + TEMPLATE_BUFFER_OFFSET(Length));
 3609               		.loc 5 3 0
 3610               		.cfi_startproc
 3611               	.LVL356:
 3612 0000 0F93      		push r16
 3613               	.LCFI97:
 3614               		.cfi_def_cfa_offset 3
 3615               		.cfi_offset 16, -2
 3616 0002 1F93      		push r17
 3617               	.LCFI98:
 3618               		.cfi_def_cfa_offset 4
 3619               		.cfi_offset 17, -3
 3620 0004 CF93      		push r28
 3621               	.LCFI99:
 3622               		.cfi_def_cfa_offset 5
 3623               		.cfi_offset 28, -4
 3624 0006 DF93      		push r29
 3625               	.LCFI100:
 3626               		.cfi_def_cfa_offset 6
 3627               		.cfi_offset 29, -5
 3628               	/* prologue: function */
 3629               	/* frame size = 0 */
 3630               	/* stack size = 4 */
 3631               	.L__stack_usage = 4
 3632 0008 EB01      		movw r28,r22
   4:../../LUFA/Drivers/USB/LowLevel/Template/Template_Endpoint_Control_R.c **** 	
 3633               		.loc 5 4 0
 3634 000a 9B01      		movw r18,r22
 3635 000c 2150      		subi r18,1
 3636 000e 3109      		sbc r19,__zero_reg__
 3637 0010 820F      		add r24,r18
 3638 0012 931F      		adc r25,r19
 3639               	.LVL357:
   6:../../LUFA/Drivers/USB/LowLevel/Template/Template_Endpoint_Control_R.c **** 	  Endpoint_ClearOUT();
 3640               		.loc 5 6 0
 3641 0014 2097      		sbiw r28,0
 3642 0016 01F4      		brne .L371
 3643               	.LBB506:
 3644               	.LBB507:
 469:../../LUFA/Drivers/USB/LowLevel/Endpoint.h **** 				#else
 3645               		.loc 2 469 0
 3646 0018 2091 E800 		lds r18,232
 3647 001c 2B77      		andi r18,lo8(123)
 3648 001e 2093 E800 		sts 232,r18
 3649               	.LVL358:
 3650               	.L371:
 3651               	.LBE507:
 3652               	.LBE506:
   9:../../LUFA/Drivers/USB/LowLevel/Template/Template_Endpoint_Control_R.c **** 	{
 3653               		.loc 5 9 0
 3654 0022 2097      		sbiw r28,0
 3655 0024 01F4      		brne .L374
 3656               	.LVL359:
 3657               	.L375:
 3658               	.LBB508:
 3659               	.LBB509:
 405:../../LUFA/Drivers/USB/LowLevel/Endpoint.h **** 			}
 3660               		.loc 2 405 0
 3661 0026 8091 E800 		lds r24,232
 3662               	.LBE509:
 3663               	.LBE508:
  31:../../LUFA/Drivers/USB/LowLevel/Template/Template_Endpoint_Control_R.c **** 	{
 3664               		.loc 5 31 0
 3665 002a 80FF      		sbrs r24,0
 3666 002c 00C0      		rjmp .L376
  39:../../LUFA/Drivers/USB/LowLevel/Template/Template_Endpoint_Control_R.c **** }
 3667               		.loc 5 39 0
 3668 002e 80E0      		ldi r24,0
 3669               	.L366:
 3670               	/* epilogue start */
 3671               		.loc 5 40 0
 3672 0030 DF91      		pop r29
 3673 0032 CF91      		pop r28
 3674               	.LVL360:
 3675 0034 1F91      		pop r17
 3676 0036 0F91      		pop r16
 3677 0038 0895      		ret
 3678               	.LVL361:
 3679               	.L374:
 3680               	.LBB510:
 3681               	.LBB511:
 429:../../LUFA/Drivers/USB/LowLevel/Endpoint.h **** 			}
 3682               		.loc 2 429 0
 3683 003a 2091 E800 		lds r18,232
 3684               	.LBE511:
 3685               	.LBE510:
  11:../../LUFA/Drivers/USB/LowLevel/Template/Template_Endpoint_Control_R.c **** 		  return ENDPOINT_RWCSTREAM_HostAborted;
 3686               		.loc 5 11 0
 3687 003e 23FD      		sbrc r18,3
 3688 0040 00C0      		rjmp .L377
  14:../../LUFA/Drivers/USB/LowLevel/Template/Template_Endpoint_Control_R.c **** 		  return ENDPOINT_RWCSTREAM_DeviceDisconnected;
 3689               		.loc 5 14 0
 3690 0042 2EB3      		in r18,0x1e
 3691 0044 2223      		tst r18
 3692 0046 01F0      		breq .L380
  16:../../LUFA/Drivers/USB/LowLevel/Template/Template_Endpoint_Control_R.c **** 		  return ENDPOINT_RWCSTREAM_BusSuspended;
 3693               		.loc 5 16 0
 3694 0048 2EB3      		in r18,0x1e
 3695 004a 2530      		cpi r18,lo8(5)
 3696 004c 01F0      		breq .L381
 3697               	.LBB512:
 3698               	.LBB513:
 417:../../LUFA/Drivers/USB/LowLevel/Endpoint.h **** 			}
 3699               		.loc 2 417 0
 3700 004e 2091 E800 		lds r18,232
 3701               	.LBE513:
 3702               	.LBE512:
  19:../../LUFA/Drivers/USB/LowLevel/Template/Template_Endpoint_Control_R.c **** 		{
 3703               		.loc 5 19 0
 3704 0052 22FF      		sbrs r18,2
 3705 0054 00C0      		rjmp .L371
 3706               	.L370:
 3707               	.LBB514:
 3708               	.LBB515:
 266:../../LUFA/Drivers/USB/LowLevel/Endpoint.h **** 				#endif
 3709               		.loc 2 266 0
 3710 0056 2091 F200 		lds r18,242
 3711               	.LBE515:
 3712               	.LBE514:
  21:../../LUFA/Drivers/USB/LowLevel/Template/Template_Endpoint_Control_R.c **** 			{
 3713               		.loc 5 21 0
 3714 005a 2111      		cpse r18,__zero_reg__
 3715 005c 00C0      		rjmp .L373
 3716 005e 8C01      		movw r16,r24
 3717               	.LVL362:
 3718               	.L372:
 3719               	.LBB516:
 3720               	.LBB517:
 469:../../LUFA/Drivers/USB/LowLevel/Endpoint.h **** 				#else
 3721               		.loc 2 469 0
 3722 0060 8091 E800 		lds r24,232
 3723 0064 8B77      		andi r24,lo8(123)
 3724 0066 8093 E800 		sts 232,r24
 3725 006a C801      		movw r24,r16
 3726 006c 00C0      		rjmp .L371
 3727               	.LVL363:
 3728               	.L373:
 3729               	.LBE517:
 3730               	.LBE516:
 3731               	.LBB518:
 3732               	.LBB519:
 550:../../LUFA/Drivers/USB/LowLevel/Endpoint.h **** 			}
 3733               		.loc 2 550 0
 3734 006e 6091 F100 		lds r22,241
 3735               	.LBE519:
 3736               	.LBE518:
  23:../../LUFA/Drivers/USB/LowLevel/Template/Template_Endpoint_Control_R.c **** 				Length--;
 3737               		.loc 5 23 0
 3738 0072 8C01      		movw r16,r24
 3739 0074 0150      		subi r16,1
 3740 0076 1109      		sbc r17,__zero_reg__
 3741               	.LVL364:
 3742 0078 0E94 0000 		call eeprom_update_byte
 3743               	.LVL365:
  24:../../LUFA/Drivers/USB/LowLevel/Template/Template_Endpoint_Control_R.c **** 			}
 3744               		.loc 5 24 0
 3745 007c 2197      		sbiw r28,1
 3746               	.LVL366:
  21:../../LUFA/Drivers/USB/LowLevel/Template/Template_Endpoint_Control_R.c **** 			{
 3747               		.loc 5 21 0
 3748 007e 01F0      		breq .L372
  23:../../LUFA/Drivers/USB/LowLevel/Template/Template_Endpoint_Control_R.c **** 				Length--;
 3749               		.loc 5 23 0
 3750 0080 C801      		movw r24,r16
 3751 0082 00C0      		rjmp .L370
 3752               	.LVL367:
 3753               	.L376:
  33:../../LUFA/Drivers/USB/LowLevel/Template/Template_Endpoint_Control_R.c **** 		  return ENDPOINT_RWCSTREAM_DeviceDisconnected;
 3754               		.loc 5 33 0
 3755 0084 8EB3      		in r24,0x1e
 3756 0086 8823      		tst r24
 3757 0088 01F0      		breq .L380
  35:../../LUFA/Drivers/USB/LowLevel/Template/Template_Endpoint_Control_R.c **** 		  return ENDPOINT_RWCSTREAM_BusSuspended;
 3758               		.loc 5 35 0
 3759 008a 8EB3      		in r24,0x1e
 3760 008c 8530      		cpi r24,lo8(5)
 3761 008e 01F4      		brne .L375
 3762               	.L381:
  17:../../LUFA/Drivers/USB/LowLevel/Template/Template_Endpoint_Control_R.c **** 		  
 3763               		.loc 5 17 0
 3764 0090 83E0      		ldi r24,lo8(3)
 3765 0092 00C0      		rjmp .L366
 3766               	.LVL368:
 3767               	.L377:
  12:../../LUFA/Drivers/USB/LowLevel/Template/Template_Endpoint_Control_R.c **** 
 3768               		.loc 5 12 0
 3769 0094 81E0      		ldi r24,lo8(1)
 3770               	.LVL369:
 3771 0096 00C0      		rjmp .L366
 3772               	.L380:
  15:../../LUFA/Drivers/USB/LowLevel/Template/Template_Endpoint_Control_R.c **** 		else if (USB_DeviceState == DEVICE_STATE_Suspended)
 3773               		.loc 5 15 0
 3774 0098 82E0      		ldi r24,lo8(2)
 3775 009a 00C0      		rjmp .L366
 3776               		.cfi_endproc
 3777               	.LFE89:
 3779               		.text
 3780               	.Letext0:
 3781               		.file 6 "/Applications/Arduino.app/Contents/Java/hardware/tools/avr/avr/include/stdint.h"
 3782               		.file 7 "../../LUFA/Drivers/USB/LowLevel/../HighLevel/../LowLevel/../HighLevel/StdRequestType.h"
 3783               		.file 8 "../../LUFA/Drivers/USB/LowLevel/../HighLevel/../LowLevel/../HighLevel/DeviceStandardReq.h
 3784               		.file 9 "../../LUFA/Drivers/USB/LowLevel/../HighLevel/USBTask.h"
 3785               		.file 10 "../../LUFA/Drivers/USB/LowLevel/../HighLevel/../LowLevel/Device.h"
 3786               		.file 11 "../../LUFA/Drivers/USB/LowLevel/../HighLevel/StreamCallbacks.h"
 3787               		.file 12 "/Applications/Arduino.app/Contents/Java/hardware/tools/avr/avr/include/avr/eeprom.h"
DEFINED SYMBOLS
                            *ABS*:0000000000000000 Endpoint.c
/var/folders/j8/tgcwrqr14993zwf2fgrl_9qc0000gq/T//ccaMERmI.s:2      *ABS*:000000000000003e __SP_H__
/var/folders/j8/tgcwrqr14993zwf2fgrl_9qc0000gq/T//ccaMERmI.s:3      *ABS*:000000000000003d __SP_L__
/var/folders/j8/tgcwrqr14993zwf2fgrl_9qc0000gq/T//ccaMERmI.s:4      *ABS*:000000000000003f __SREG__
/var/folders/j8/tgcwrqr14993zwf2fgrl_9qc0000gq/T//ccaMERmI.s:5      *ABS*:0000000000000000 __tmp_reg__
/var/folders/j8/tgcwrqr14993zwf2fgrl_9qc0000gq/T//ccaMERmI.s:6      *ABS*:0000000000000001 __zero_reg__
/var/folders/j8/tgcwrqr14993zwf2fgrl_9qc0000gq/T//ccaMERmI.s:13     .text.Endpoint_BytesToEPSizeMaskDynamic:0000000000000000 Endpoint_BytesToEPSizeMaskDynamic
/var/folders/j8/tgcwrqr14993zwf2fgrl_9qc0000gq/T//ccaMERmI.s:67     .text.Endpoint_ConfigureEndpoint_Prv:0000000000000000 Endpoint_ConfigureEndpoint_Prv
/var/folders/j8/tgcwrqr14993zwf2fgrl_9qc0000gq/T//ccaMERmI.s:121    .text.Endpoint_ClearEndpoints:0000000000000000 Endpoint_ClearEndpoints
/var/folders/j8/tgcwrqr14993zwf2fgrl_9qc0000gq/T//ccaMERmI.s:173    .text.Endpoint_ClearStatusStage:0000000000000000 Endpoint_ClearStatusStage
/var/folders/j8/tgcwrqr14993zwf2fgrl_9qc0000gq/T//ccaMERmI.s:248    .text.Endpoint_WaitUntilReady:0000000000000000 Endpoint_WaitUntilReady
/var/folders/j8/tgcwrqr14993zwf2fgrl_9qc0000gq/T//ccaMERmI.s:356    .text.Endpoint_Discard_Stream:0000000000000000 Endpoint_Discard_Stream
/var/folders/j8/tgcwrqr14993zwf2fgrl_9qc0000gq/T//ccaMERmI.s:469    .text.Endpoint_Write_Stream_LE:0000000000000000 Endpoint_Write_Stream_LE
/var/folders/j8/tgcwrqr14993zwf2fgrl_9qc0000gq/T//ccaMERmI.s:608    .text.Endpoint_Write_PStream_LE:0000000000000000 Endpoint_Write_PStream_LE
/var/folders/j8/tgcwrqr14993zwf2fgrl_9qc0000gq/T//ccaMERmI.s:755    .text.Endpoint_Write_EStream_LE:0000000000000000 Endpoint_Write_EStream_LE
/var/folders/j8/tgcwrqr14993zwf2fgrl_9qc0000gq/T//ccaMERmI.s:904    .text.Endpoint_Write_Stream_BE:0000000000000000 Endpoint_Write_Stream_BE
/var/folders/j8/tgcwrqr14993zwf2fgrl_9qc0000gq/T//ccaMERmI.s:1048   .text.Endpoint_Write_EStream_BE:0000000000000000 Endpoint_Write_EStream_BE
/var/folders/j8/tgcwrqr14993zwf2fgrl_9qc0000gq/T//ccaMERmI.s:1206   .text.Endpoint_Write_PStream_BE:0000000000000000 Endpoint_Write_PStream_BE
/var/folders/j8/tgcwrqr14993zwf2fgrl_9qc0000gq/T//ccaMERmI.s:1362   .text.Endpoint_Read_Stream_LE:0000000000000000 Endpoint_Read_Stream_LE
/var/folders/j8/tgcwrqr14993zwf2fgrl_9qc0000gq/T//ccaMERmI.s:1498   .text.Endpoint_Read_EStream_LE:0000000000000000 Endpoint_Read_EStream_LE
/var/folders/j8/tgcwrqr14993zwf2fgrl_9qc0000gq/T//ccaMERmI.s:1646   .text.Endpoint_Read_Stream_BE:0000000000000000 Endpoint_Read_Stream_BE
/var/folders/j8/tgcwrqr14993zwf2fgrl_9qc0000gq/T//ccaMERmI.s:1788   .text.Endpoint_Read_EStream_BE:0000000000000000 Endpoint_Read_EStream_BE
/var/folders/j8/tgcwrqr14993zwf2fgrl_9qc0000gq/T//ccaMERmI.s:1945   .text.Endpoint_Write_Control_Stream_LE:0000000000000000 Endpoint_Write_Control_Stream_LE
/var/folders/j8/tgcwrqr14993zwf2fgrl_9qc0000gq/T//ccaMERmI.s:2133   .text.Endpoint_Write_Control_PStream_LE:0000000000000000 Endpoint_Write_Control_PStream_LE
/var/folders/j8/tgcwrqr14993zwf2fgrl_9qc0000gq/T//ccaMERmI.s:2329   .text.Endpoint_Write_Control_EStream_LE:0000000000000000 Endpoint_Write_Control_EStream_LE
/var/folders/j8/tgcwrqr14993zwf2fgrl_9qc0000gq/T//ccaMERmI.s:2544   .text.Endpoint_Write_Control_Stream_BE:0000000000000000 Endpoint_Write_Control_Stream_BE
/var/folders/j8/tgcwrqr14993zwf2fgrl_9qc0000gq/T//ccaMERmI.s:2736   .text.Endpoint_Write_Control_PStream_BE:0000000000000000 Endpoint_Write_Control_PStream_BE
/var/folders/j8/tgcwrqr14993zwf2fgrl_9qc0000gq/T//ccaMERmI.s:2939   .text.Endpoint_Write_Control_EStream_BE:0000000000000000 Endpoint_Write_Control_EStream_BE
/var/folders/j8/tgcwrqr14993zwf2fgrl_9qc0000gq/T//ccaMERmI.s:3165   .text.Endpoint_Read_Control_Stream_LE:0000000000000000 Endpoint_Read_Control_Stream_LE
/var/folders/j8/tgcwrqr14993zwf2fgrl_9qc0000gq/T//ccaMERmI.s:3301   .text.Endpoint_Read_Control_EStream_LE:0000000000000000 Endpoint_Read_Control_EStream_LE
/var/folders/j8/tgcwrqr14993zwf2fgrl_9qc0000gq/T//ccaMERmI.s:3470   .text.Endpoint_Read_Control_Stream_BE:0000000000000000 Endpoint_Read_Control_Stream_BE
/var/folders/j8/tgcwrqr14993zwf2fgrl_9qc0000gq/T//ccaMERmI.s:3607   .text.Endpoint_Read_Control_EStream_BE:0000000000000000 Endpoint_Read_Control_EStream_BE

UNDEFINED SYMBOLS
USB_ControlRequest
eeprom_read_byte
eeprom_update_byte
