	.file	"Arduino-usbserial.c"
__SP_H__ = 0x3e
__SP_L__ = 0x3d
__SREG__ = 0x3f
__tmp_reg__ = 0
__zero_reg__ = 1
	.text
.Ltext0:
	.cfi_sections	.debug_frame
	.section	.text.SetupHardware,"ax",@progbits
.global	SetupHardware
	.type	SetupHardware, @function
SetupHardware:
.LFB90:
	.file 1 "Arduino-usbserial.c"
	.loc 1 140 0
	.cfi_startproc
/* prologue: function */
/* frame size = 0 */
/* stack size = 0 */
.L__stack_usage = 0
	.loc 1 142 0
	in r24,0x34
	andi r24,lo8(-9)
	out 0x34,r24
.LBB40:
.LBB41:
	.file 2 "/Applications/Arduino.app/Contents/Java/hardware/tools/avr/avr/include/avr/wdt.h"
	.loc 2 515 0
/* #APP */
 ;  515 "/Applications/Arduino.app/Contents/Java/hardware/tools/avr/avr/include/avr/wdt.h" 1
	in __tmp_reg__,__SREG__
	cli
	wdr
	lds r24,96
	ori r24,24
	sts 96,r24
	sts 96,__zero_reg__
	out __SREG__,__tmp_reg__
	
 ;  0 "" 2
.LVL0:
/* #NOAPP */
.LBE41:
.LBE40:
.LBB42:
.LBB43:
	.file 3 "../../LUFA/Drivers/Peripheral/Serial.h"
	.loc 3 102 0
	ldi r24,lo8(103)
	ldi r25,0
	sts 204+1,r25
	sts 204,r24
	.loc 3 104 0
	ldi r24,lo8(6)
	sts 202,r24
	.loc 3 105 0
	sts 200,__zero_reg__
	.loc 3 106 0
	ldi r24,lo8(24)
	sts 201,r24
	.loc 3 108 0
	sbi 0xa,3
	.loc 3 109 0
	sbi 0xb,2
.LVL1:
.LBE43:
.LBE42:
.LBB44:
.LBB45:
	.file 4 "./Board/LEDs.h"
	.loc 4 69 0
	in r24,0xa
	ori r24,lo8(48)
	out 0xa,r24
	.loc 4 70 0
	in r24,0xb
	ori r24,lo8(48)
	out 0xb,r24
.LBE45:
.LBE44:
	.loc 1 148 0
	call USB_Init
.LVL2:
	.loc 1 151 0
	ldi r24,lo8(4)
	out 0x25,r24
	.loc 1 154 0
	sbi 0xb,7
	.loc 1 155 0
	sbi 0xa,7
/* epilogue start */
	.loc 1 156 0
	ret
	.cfi_endproc
.LFE90:
	.size	SetupHardware, .-SetupHardware
	.section	.text.startup.main,"ax",@progbits
.global	main
	.type	main, @function
main:
.LFB89:
	.loc 1 81 0
	.cfi_startproc
/* prologue: function */
/* frame size = 0 */
/* stack size = 0 */
.L__stack_usage = 0
	.loc 1 82 0
	call SetupHardware
.LVL3:
.LBB118:
.LBB119:
	.file 5 "Lib/LightweightRingBuff.h"
	.loc 5 87 0
	in r18,__SREG__
.LVL4:
.LBB120:
.LBB121:
	.file 6 "/Applications/Arduino.app/Contents/Java/hardware/tools/avr/avr/include/util/atomic.h"
	.loc 6 50 0
/* #APP */
 ;  50 "/Applications/Arduino.app/Contents/Java/hardware/tools/avr/avr/include/util/atomic.h" 1
	cli
 ;  0 "" 2
.LVL5:
/* #NOAPP */
.LBE121:
.LBE120:
	.loc 5 89 0
	ldi r24,lo8(USBtoUSART_Buffer)
	ldi r25,hi8(USBtoUSART_Buffer)
	sts USBtoUSART_Buffer+128+1,r25
	sts USBtoUSART_Buffer+128,r24
	.loc 5 90 0
	sts USBtoUSART_Buffer+130+1,r25
	sts USBtoUSART_Buffer+130,r24
.LVL6:
.LBB122:
.LBB123:
	.loc 6 70 0
	out __SREG__,r18
	.loc 6 71 0
.LVL7:
.LBE123:
.LBE122:
.LBE119:
.LBE118:
.LBB124:
.LBB125:
	.loc 5 87 0
	in r18,__SREG__
.LVL8:
.LBB126:
.LBB127:
	.loc 6 50 0
/* #APP */
 ;  50 "/Applications/Arduino.app/Contents/Java/hardware/tools/avr/avr/include/util/atomic.h" 1
	cli
 ;  0 "" 2
.LVL9:
/* #NOAPP */
.LBE127:
.LBE126:
	.loc 5 89 0
	ldi r24,lo8(USARTtoUSB_Buffer)
	ldi r25,hi8(USARTtoUSB_Buffer)
	sts USARTtoUSB_Buffer+128+1,r25
	sts USARTtoUSB_Buffer+128,r24
	.loc 5 90 0
	sts USARTtoUSB_Buffer+130+1,r25
	sts USARTtoUSB_Buffer+130,r24
.LVL10:
.LBB128:
.LBB129:
	.loc 6 70 0
	out __SREG__,r18
	.loc 6 71 0
.LVL11:
.LBE129:
.LBE128:
.LBE125:
.LBE124:
	.loc 1 87 0
/* #APP */
 ;  87 "Arduino-usbserial.c" 1
	sei
 ;  0 "" 2
/* #NOAPP */
.LBB130:
.LBB131:
.LBB132:
.LBB133:
.LBB134:
	.loc 5 113 0
	ldi r28,lo8(USBtoUSART_Buffer)
	ldi r29,hi8(USBtoUSART_Buffer)
.LBE134:
.LBE133:
.LBE132:
.LBE131:
.LBB142:
.LBB143:
	.loc 5 184 0
	movw r16,r24
.LBE143:
.LBE142:
	.loc 1 109 0
	ldi r24,lo8(3)
	mov r14,r24
.LVL12:
.L23:
.LBB151:
.LBB141:
.LBB140:
.LBB139:
	.loc 5 111 0
	in r25,__SREG__
.LVL13:
.LBB135:
.LBB136:
	.loc 6 50 0
/* #APP */
 ;  50 "/Applications/Arduino.app/Contents/Java/hardware/tools/avr/avr/include/util/atomic.h" 1
	cli
 ;  0 "" 2
.LVL14:
/* #NOAPP */
.LBE136:
.LBE135:
	.loc 5 113 0
	lds r24,USBtoUSART_Buffer+132
.LVL15:
.LBB137:
.LBB138:
	.loc 6 70 0
	out __SREG__,r25
	.loc 6 71 0
.LVL16:
.LBE138:
.LBE137:
.LBE139:
.LBE140:
.LBE141:
.LBE151:
	.loc 1 92 0
	cpi r24,lo8(-128)
	breq .L4
.LBB152:
	.loc 1 94 0
	ldi r24,lo8(VirtualSerial_CDC_Interface)
	ldi r25,hi8(VirtualSerial_CDC_Interface)
	call CDC_Device_ReceiveByte
.LVL17:
	.loc 1 97 0
	sbrc r25,7
	rjmp .L4
.LVL18:
.LBB153:
.LBB154:
	.loc 5 161 0
	lds r30,USBtoUSART_Buffer+128
	lds r31,USBtoUSART_Buffer+128+1
.LBE154:
.LBE153:
	.loc 1 98 0
	st Z,r24
.LBB162:
.LBB160:
	.loc 5 163 0
	lds r24,USBtoUSART_Buffer+128
	lds r25,USBtoUSART_Buffer+128+1
.LVL19:
	adiw r24,1
	ldi r18,hi8(USBtoUSART_Buffer+128)
	cpi r24,lo8(USBtoUSART_Buffer+128)
	cpc r25,r18
	brne .+2
	rjmp .L6
	sts USBtoUSART_Buffer+128+1,r25
	sts USBtoUSART_Buffer+128,r24
.L7:
.LBB155:
	.loc 5 166 0
	in r25,__SREG__
.LVL20:
.LBB156:
.LBB157:
	.loc 6 50 0
/* #APP */
 ;  50 "/Applications/Arduino.app/Contents/Java/hardware/tools/avr/avr/include/util/atomic.h" 1
	cli
 ;  0 "" 2
.LVL21:
/* #NOAPP */
.LBE157:
.LBE156:
	.loc 5 168 0
	lds r24,USBtoUSART_Buffer+132
	subi r24,lo8(-(1))
	sts USBtoUSART_Buffer+132,r24
.LVL22:
.LBB158:
.LBB159:
	.loc 6 70 0
	out __SREG__,r25
	.loc 6 71 0
.LVL23:
.L4:
.LBE159:
.LBE158:
.LBE155:
.LBE160:
.LBE162:
.LBE152:
.LBB164:
.LBB165:
.LBB166:
	.loc 5 111 0
	in r24,__SREG__
.LVL24:
.LBB167:
.LBB168:
	.loc 6 50 0
/* #APP */
 ;  50 "/Applications/Arduino.app/Contents/Java/hardware/tools/avr/avr/include/util/atomic.h" 1
	cli
 ;  0 "" 2
.LVL25:
/* #NOAPP */
.LBE168:
.LBE167:
	.loc 5 113 0
	lds r15,USARTtoUSB_Buffer+132
.LVL26:
.LBB169:
.LBB170:
	.loc 6 70 0
	out __SREG__,r24
	.loc 6 71 0
.LVL27:
.LBE170:
.LBE169:
.LBE166:
.LBE165:
.LBE164:
	.loc 1 103 0
	sbic 0x15,0
	rjmp .L8
	.loc 1 103 0 is_stmt 0 discriminator 1
	ldi r24,lo8(96)
	cp r24,r15
	brsh .L9
.L8:
	.loc 1 105 0 is_stmt 1
	sbi 0x15,0
	.loc 1 107 0
	lds r24,USARTtoUSB_Buffer+132
	tst r24
	breq .L11
.LVL28:
.LBB171:
.LBB172:
	.loc 4 75 0
	cbi 0xb,5
.LVL29:
.LBE172:
.LBE171:
	.loc 1 109 0
	sts PulseMSRemaining,r14
.LVL30:
.L11:
	.loc 1 113 0
	dec r15
.LVL31:
	ldi r24,lo8(-1)
	cpse r15,r24
	rjmp .L14
	.loc 1 117 0
	lds r24,PulseMSRemaining
	tst r24
	breq .L16
	.loc 1 117 0 is_stmt 0 discriminator 1
	lds r24,PulseMSRemaining
	subi r24,lo8(-(-1))
	sts PulseMSRemaining,r24
	cpse r24,__zero_reg__
	rjmp .L16
.LVL32:
.LBB173:
.LBB174:
	.loc 4 80 0 is_stmt 1
	sbi 0xb,5
.LVL33:
.L16:
.LBE174:
.LBE173:
	.loc 1 121 0
	lds r24,PulseMSRemaining+1
	tst r24
	breq .L9
	.loc 1 121 0 is_stmt 0 discriminator 1
	lds r24,PulseMSRemaining+1
	subi r24,lo8(-(-1))
	sts PulseMSRemaining+1,r24
	cpse r24,__zero_reg__
	rjmp .L9
.LVL34:
.LBB175:
.LBB176:
	.loc 4 80 0 is_stmt 1
	sbi 0xb,4
.LVL35:
.L9:
.LBE176:
.LBE175:
.LBB177:
.LBB178:
.LBB179:
.LBB180:
	.loc 5 111 0
	in r25,__SREG__
.LVL36:
.LBB181:
.LBB182:
	.loc 6 50 0
/* #APP */
 ;  50 "/Applications/Arduino.app/Contents/Java/hardware/tools/avr/avr/include/util/atomic.h" 1
	cli
 ;  0 "" 2
.LVL37:
/* #NOAPP */
.LBE182:
.LBE181:
	.loc 5 113 0
	lds r24,USBtoUSART_Buffer+132
.LVL38:
.LBB183:
.LBB184:
	.loc 6 70 0
	out __SREG__,r25
	.loc 6 71 0
.LVL39:
.LBE184:
.LBE183:
.LBE180:
.LBE179:
.LBE178:
.LBE177:
	.loc 1 126 0
	tst r24
	breq .L19
.LVL40:
.LBB185:
.LBB186:
	.loc 5 184 0
	lds r30,USBtoUSART_Buffer+130
	lds r31,USBtoUSART_Buffer+130+1
	ld r25,Z+
.LVL41:
	.loc 5 186 0
	ldi r18,hi8(USBtoUSART_Buffer+128)
	cpi r30,lo8(USBtoUSART_Buffer+128)
	cpc r31,r18
	brne .+2
	rjmp .L20
	sts USBtoUSART_Buffer+130+1,r31
	sts USBtoUSART_Buffer+130,r30
.L21:
.LBB187:
	.loc 5 189 0
	in r18,__SREG__
.LVL42:
.LBB188:
.LBB189:
	.loc 6 50 0
/* #APP */
 ;  50 "/Applications/Arduino.app/Contents/Java/hardware/tools/avr/avr/include/util/atomic.h" 1
	cli
 ;  0 "" 2
.LVL43:
/* #NOAPP */
.LBE189:
.LBE188:
	.loc 5 191 0
	lds r24,USBtoUSART_Buffer+132
	subi r24,lo8(-(-1))
	sts USBtoUSART_Buffer+132,r24
.LVL44:
.LBB190:
.LBB191:
	.loc 6 70 0
	out __SREG__,r18
	.loc 6 71 0
.LVL45:
.L22:
.LBE191:
.LBE190:
.LBE187:
.LBE186:
.LBE185:
.LBB193:
.LBB194:
	.loc 3 142 0
	lds r24,200
	sbrs r24,5
	rjmp .L22
	.loc 3 143 0
	sts 206,r25
.LVL46:
.LBE194:
.LBE193:
.LBB195:
.LBB196:
	.loc 4 75 0
	cbi 0xb,4
.LVL47:
.LBE196:
.LBE195:
	.loc 1 130 0
	sts PulseMSRemaining+1,r14
.LVL48:
.L19:
	.loc 1 133 0
	ldi r24,lo8(VirtualSerial_CDC_Interface)
	ldi r25,hi8(VirtualSerial_CDC_Interface)
	call CDC_Device_USBTask
.LVL49:
	.loc 1 134 0
	call USB_USBTask
.LVL50:
.LBE130:
	.loc 1 90 0
	rjmp .L23
.LVL51:
.L6:
.LBB201:
.LBB197:
.LBB163:
.LBB161:
	.loc 5 164 0
	sts USBtoUSART_Buffer+128+1,r29
	sts USBtoUSART_Buffer+128,r28
	rjmp .L7
.LVL52:
.L14:
.LBE161:
.LBE163:
.LBE197:
.LBB198:
.LBB149:
	.loc 5 184 0
	lds r30,USARTtoUSB_Buffer+130
	lds r31,USARTtoUSB_Buffer+130+1
	ld r22,Z+
.LVL53:
	.loc 5 186 0
	ldi r18,hi8(USARTtoUSB_Buffer+128)
	cpi r30,lo8(USARTtoUSB_Buffer+128)
	cpc r31,r18
	breq .L12
	sts USARTtoUSB_Buffer+130+1,r31
	sts USARTtoUSB_Buffer+130,r30
.L13:
.LBB144:
	.loc 5 189 0
	in r25,__SREG__
.LVL54:
.LBB145:
.LBB146:
	.loc 6 50 0
/* #APP */
 ;  50 "/Applications/Arduino.app/Contents/Java/hardware/tools/avr/avr/include/util/atomic.h" 1
	cli
 ;  0 "" 2
.LVL55:
/* #NOAPP */
.LBE146:
.LBE145:
	.loc 5 191 0
	lds r24,USARTtoUSB_Buffer+132
	subi r24,lo8(-(-1))
	sts USARTtoUSB_Buffer+132,r24
.LVL56:
.LBB147:
.LBB148:
	.loc 6 70 0
	out __SREG__,r25
	.loc 6 71 0
.LVL57:
.LBE148:
.LBE147:
.LBE144:
.LBE149:
.LBE198:
	.loc 1 114 0
	ldi r24,lo8(VirtualSerial_CDC_Interface)
	ldi r25,hi8(VirtualSerial_CDC_Interface)
	call CDC_Device_SendByte
.LVL58:
	rjmp .L11
.LVL59:
.L12:
.LBB199:
.LBB150:
	.loc 5 187 0
	sts USARTtoUSB_Buffer+130+1,r17
	sts USARTtoUSB_Buffer+130,r16
	rjmp .L13
.LVL60:
.L20:
.LBE150:
.LBE199:
.LBB200:
.LBB192:
	sts USBtoUSART_Buffer+130+1,r29
	sts USBtoUSART_Buffer+130,r28
	rjmp .L21
.LBE192:
.LBE200:
.LBE201:
	.cfi_endproc
.LFE89:
	.size	main, .-main
	.section	.text.EVENT_USB_Device_ConfigurationChanged,"ax",@progbits
.global	EVENT_USB_Device_ConfigurationChanged
	.type	EVENT_USB_Device_ConfigurationChanged, @function
EVENT_USB_Device_ConfigurationChanged:
.LFB91:
	.loc 1 160 0
	.cfi_startproc
/* prologue: function */
/* frame size = 0 */
/* stack size = 0 */
.L__stack_usage = 0
	.loc 1 161 0
	ldi r24,lo8(VirtualSerial_CDC_Interface)
	ldi r25,hi8(VirtualSerial_CDC_Interface)
	jmp CDC_Device_ConfigureEndpoints
.LVL61:
	.cfi_endproc
.LFE91:
	.size	EVENT_USB_Device_ConfigurationChanged, .-EVENT_USB_Device_ConfigurationChanged
	.section	.text.EVENT_USB_Device_UnhandledControlRequest,"ax",@progbits
.global	EVENT_USB_Device_UnhandledControlRequest
	.type	EVENT_USB_Device_UnhandledControlRequest, @function
EVENT_USB_Device_UnhandledControlRequest:
.LFB92:
	.loc 1 166 0
	.cfi_startproc
/* prologue: function */
/* frame size = 0 */
/* stack size = 0 */
.L__stack_usage = 0
	.loc 1 167 0
	ldi r24,lo8(VirtualSerial_CDC_Interface)
	ldi r25,hi8(VirtualSerial_CDC_Interface)
	jmp CDC_Device_ProcessControlRequest
.LVL62:
	.cfi_endproc
.LFE92:
	.size	EVENT_USB_Device_UnhandledControlRequest, .-EVENT_USB_Device_UnhandledControlRequest
	.section	.text.EVENT_CDC_Device_LineEncodingChanged,"ax",@progbits
.global	EVENT_CDC_Device_LineEncodingChanged
	.type	EVENT_CDC_Device_LineEncodingChanged, @function
EVENT_CDC_Device_LineEncodingChanged:
.LFB93:
	.loc 1 175 0
	.cfi_startproc
.LVL63:
	push r16
.LCFI0:
	.cfi_def_cfa_offset 3
	.cfi_offset 16, -2
	push r17
.LCFI1:
	.cfi_def_cfa_offset 4
	.cfi_offset 17, -3
	push r28
.LCFI2:
	.cfi_def_cfa_offset 5
	.cfi_offset 28, -4
/* prologue: function */
/* frame size = 0 */
/* stack size = 3 */
.L__stack_usage = 3
	movw r16,r24
.LVL64:
	.loc 1 178 0
	movw r30,r24
	ldd r24,Z+20
.LVL65:
	.loc 1 181 0
	ldi r28,lo8(48)
	.loc 1 178 0
	cpi r24,lo8(1)
	breq .L38
	.loc 1 184 0
	ldi r28,lo8(32)
	.loc 1 178 0
	cpi r24,lo8(2)
	breq .L38
	.loc 1 176 0
	ldi r28,0
.L38:
.LVL66:
	.loc 1 188 0
	movw r30,r16
	ldd r24,Z+19
	cpi r24,lo8(2)
	brne .L41
	.loc 1 189 0
	ori r28,lo8(8)
.LVL67:
.L41:
	.loc 1 191 0
	movw r30,r16
	ldd r24,Z+21
	cpi r24,lo8(7)
	breq .L43
	cpi r24,lo8(8)
	breq .L44
	cpi r24,lo8(6)
	brne .L42
	.loc 1 194 0
	ori r28,lo8(2)
.LVL68:
.L42:
	.loc 1 205 0
	sts 201,__zero_reg__
	.loc 1 206 0
	sts 200,__zero_reg__
	.loc 1 207 0
	sts 202,__zero_reg__
	.loc 1 210 0
	movw r30,r16
	ldd r18,Z+15
	ldd r19,Z+16
	ldd r20,Z+17
	ldd r21,Z+18
	cp r18,__zero_reg__
	ldi r31,-31
	cpc r19,r31
	cpc r20,__zero_reg__
	cpc r21,__zero_reg__
	breq .L49
	.loc 1 212 0 discriminator 2
	movw r24,r20
	movw r22,r18
	lsr r25
	ror r24
	ror r23
	ror r22
	subi r22,-128
	sbci r23,123
	sbci r24,-31
	sbci r25,-1
	call __udivmodsi4
	.loc 1 210 0 discriminator 2
	subi r18,1
	sbc r19,__zero_reg__
.L46:
	.loc 1 210 0 is_stmt 0 discriminator 4
	sts 204+1,r19
	sts 204,r18
	.loc 1 214 0 is_stmt 1 discriminator 4
	sts 202,r28
	.loc 1 215 0 discriminator 4
	movw r30,r16
	ldd r24,Z+15
	ldd r25,Z+16
	ldd r26,Z+17
	ldd r27,Z+18
	cp r24,__zero_reg__
	sbci r25,-31
	cpc r26,__zero_reg__
	cpc r27,__zero_reg__
	breq .L50
	.loc 1 215 0 is_stmt 0
	ldi r24,lo8(2)
.L47:
	.loc 1 215 0 discriminator 4
	sts 200,r24
	.loc 1 216 0 is_stmt 1 discriminator 4
	ldi r24,lo8(-104)
	sts 201,r24
/* epilogue start */
	.loc 1 217 0 discriminator 4
	pop r28
.LVL69:
	pop r17
	pop r16
.LVL70:
	ret
.LVL71:
.L43:
	.loc 1 197 0
	ori r28,lo8(4)
.LVL72:
	.loc 1 198 0
	rjmp .L42
.L44:
	.loc 1 200 0
	ori r28,lo8(6)
.LVL73:
	.loc 1 201 0
	rjmp .L42
.L49:
	.loc 1 210 0
	ldi r18,lo8(16)
	ldi r19,0
	rjmp .L46
.L50:
	.loc 1 215 0
	ldi r24,0
	rjmp .L47
	.cfi_endproc
.LFE93:
	.size	EVENT_CDC_Device_LineEncodingChanged, .-EVENT_CDC_Device_LineEncodingChanged
	.section	.text.__vector_23,"ax",@progbits
.global	__vector_23
	.type	__vector_23, @function
__vector_23:
.LFB94:
	.loc 1 223 0
	.cfi_startproc
	push r1
.LCFI3:
	.cfi_def_cfa_offset 3
	.cfi_offset 1, -2
	push r0
.LCFI4:
	.cfi_def_cfa_offset 4
	.cfi_offset 0, -3
	in r0,__SREG__
	push r0
	clr __zero_reg__
	push r18
.LCFI5:
	.cfi_def_cfa_offset 5
	.cfi_offset 18, -4
	push r24
.LCFI6:
	.cfi_def_cfa_offset 6
	.cfi_offset 24, -5
	push r25
.LCFI7:
	.cfi_def_cfa_offset 7
	.cfi_offset 25, -6
	push r30
.LCFI8:
	.cfi_def_cfa_offset 8
	.cfi_offset 30, -7
	push r31
.LCFI9:
	.cfi_def_cfa_offset 9
	.cfi_offset 31, -8
/* prologue: Signal */
/* frame size = 0 */
/* stack size = 8 */
.L__stack_usage = 8
	.loc 1 224 0
	lds r24,206
.LVL74:
	.loc 1 226 0
	in r25,0x1e
	cpi r25,lo8(4)
	brne .L52
.LVL75:
.LBB209:
.LBB210:
	.loc 5 161 0
	lds r30,USARTtoUSB_Buffer+128
	lds r31,USARTtoUSB_Buffer+128+1
	st Z,r24
	.loc 5 163 0
	lds r30,USARTtoUSB_Buffer+128
	lds r31,USARTtoUSB_Buffer+128+1
	movw r24,r30
.LVL76:
	adiw r24,1
	ldi r18,hi8(USARTtoUSB_Buffer+128)
	cpi r24,lo8(USARTtoUSB_Buffer+128)
	cpc r25,r18
	breq .L54
	sts USARTtoUSB_Buffer+128+1,r25
	sts USARTtoUSB_Buffer+128,r24
.L55:
.LBB211:
	.loc 5 166 0
	in r25,__SREG__
.LVL77:
.LBB212:
.LBB213:
	.loc 6 50 0
/* #APP */
 ;  50 "/Applications/Arduino.app/Contents/Java/hardware/tools/avr/avr/include/util/atomic.h" 1
	cli
 ;  0 "" 2
.LVL78:
/* #NOAPP */
.LBE213:
.LBE212:
	.loc 5 168 0
	lds r24,USARTtoUSB_Buffer+132
	subi r24,lo8(-(1))
	sts USARTtoUSB_Buffer+132,r24
.LVL79:
.LBB214:
.LBB215:
	.loc 6 70 0
	out __SREG__,r25
	.loc 6 71 0
.LVL80:
.L52:
/* epilogue start */
.LBE215:
.LBE214:
.LBE211:
.LBE210:
.LBE209:
	.loc 1 228 0
	pop r31
	pop r30
	pop r25
	pop r24
	pop r18
	pop r0
	out __SREG__,r0
	pop r0
	pop r1
	reti
.LVL81:
.L54:
.LBB217:
.LBB216:
	.loc 5 164 0
	ldi r24,lo8(USARTtoUSB_Buffer)
	ldi r25,hi8(USARTtoUSB_Buffer)
	std Z+2,r25
	std Z+1,r24
	rjmp .L55
.LBE216:
.LBE217:
	.cfi_endproc
.LFE94:
	.size	__vector_23, .-__vector_23
	.section	.text.EVENT_CDC_Device_ControLineStateChanged,"ax",@progbits
.global	EVENT_CDC_Device_ControLineStateChanged
	.type	EVENT_CDC_Device_ControLineStateChanged, @function
EVENT_CDC_Device_ControLineStateChanged:
.LFB95:
	.loc 1 235 0
	.cfi_startproc
.LVL82:
/* prologue: function */
/* frame size = 0 */
/* stack size = 0 */
.L__stack_usage = 0
	.loc 1 238 0
	movw r30,r24
	ldd r24,Z+13
.LVL83:
	sbrs r24,0
	rjmp .L57
	.loc 1 239 0
	cbi 0xb,7
	ret
.L57:
	.loc 1 241 0
	sbi 0xb,7
/* epilogue start */
	.loc 1 242 0
	ret
	.cfi_endproc
.LFE95:
	.size	EVENT_CDC_Device_ControLineStateChanged, .-EVENT_CDC_Device_ControLineStateChanged
.global	VirtualSerial_CDC_Interface
	.data
	.type	VirtualSerial_CDC_Interface, @object
	.size	VirtualSerial_CDC_Interface, 22
VirtualSerial_CDC_Interface:
	.byte	0
	.byte	3
	.word	64
	.byte	0
	.byte	4
	.word	64
	.byte	0
	.byte	2
	.word	8
	.byte	0
	.zero	9
	.comm	PulseMSRemaining,3,1
	.comm	USARTtoUSB_Buffer,133,1
	.comm	USBtoUSART_Buffer,133,1
	.text
.Letext0:
	.file 7 "/Applications/Arduino.app/Contents/Java/hardware/tools/avr/avr/include/stdint.h"
	.file 8 "../../LUFA/Drivers/USB/HighLevel/../LowLevel/../HighLevel/StdRequestType.h"
	.file 9 "../../LUFA/Drivers/USB/HighLevel/../LowLevel/../HighLevel/DeviceStandardReq.h"
	.file 10 "../../LUFA/Drivers/USB/HighLevel/USBTask.h"
	.file 11 "../../LUFA/Drivers/USB/HighLevel/../LowLevel/Device.h"
	.file 12 "../../LUFA/Drivers/USB/Class/Device/../Common/CDC.h"
	.file 13 "/Applications/Arduino.app/Contents/Java/hardware/tools/avr/avr/include/stdio.h"
	.file 14 "../../LUFA/Drivers/USB/Class/Device/CDC.h"
	.file 15 "../../LUFA/Drivers/USB/HighLevel/../LowLevel/USBController.h"