	.file	"Arduino-serialusbkeyboard.c"
__SP_H__ = 0x3e
__SP_L__ = 0x3d
__SREG__ = 0x3f
__tmp_reg__ = 0
__zero_reg__ = 1
	.text
.Ltext0:
	.cfi_sections	.debug_frame
	.section	.text.LEDs_SetAllLEDs,"ax",@progbits
	.type	LEDs_SetAllLEDs, @function
LEDs_SetAllLEDs:
.LFB79:
	.file 1 "./Board/LEDs.h"
	.loc 1 84 0
	.cfi_startproc
.LVL0:
/* prologue: function */
/* frame size = 0 */
/* stack size = 0 */
.L__stack_usage = 0
	.loc 1 85 0
	in r25,0xb
	ori r25,lo8(48)
	com r24
.LVL1:
	and r25,r24
	out 0xb,r25
/* epilogue start */
	.loc 1 86 0
	ret
	.cfi_endproc
.LFE79:
	.size	LEDs_SetAllLEDs, .-LEDs_SetAllLEDs
	.section	.text.RingBuffer_Remove.constprop.3,"ax",@progbits
	.type	RingBuffer_Remove.constprop.3, @function
RingBuffer_Remove.constprop.3:
.LFB107:
	.file 2 "Lib/LightweightRingBuff.h"
	.loc 2 182 0
	.cfi_startproc
/* prologue: function */
/* frame size = 0 */
/* stack size = 0 */
.L__stack_usage = 0
.LVL2:
	.loc 2 184 0
	lds r30,USARTtoUSB_Buffer+130
	lds r31,USARTtoUSB_Buffer+130+1
	ld r24,Z+
.LVL3:
	.loc 2 186 0
	ldi r25,hi8(USARTtoUSB_Buffer+128)
	cpi r30,lo8(USARTtoUSB_Buffer+128)
	cpc r31,r25
	breq .L3
	sts USARTtoUSB_Buffer+130+1,r31
	sts USARTtoUSB_Buffer+130,r30
.L4:
.LBB103:
	.loc 2 189 0
	in r18,__SREG__
.LVL4:
.LBB104:
.LBB105:
	.file 3 "/Applications/Arduino.app/Contents/Java/hardware/tools/avr/avr/include/util/atomic.h"
	.loc 3 50 0
/* #APP */
 ;  50 "/Applications/Arduino.app/Contents/Java/hardware/tools/avr/avr/include/util/atomic.h" 1
	cli
 ;  0 "" 2
.LVL5:
/* #NOAPP */
.LBE105:
.LBE104:
	.loc 2 191 0
	lds r25,USARTtoUSB_Buffer+132
	subi r25,lo8(-(-1))
	sts USARTtoUSB_Buffer+132,r25
.LVL6:
.LBB106:
.LBB107:
	.loc 3 70 0
	out __SREG__,r18
	.loc 3 71 0
.LVL7:
/* epilogue start */
.LBE107:
.LBE106:
.LBE103:
	.loc 2 195 0
	ret
.LVL8:
.L3:
	.loc 2 187 0
	ldi r18,lo8(USARTtoUSB_Buffer)
	ldi r19,hi8(USARTtoUSB_Buffer)
	sts USARTtoUSB_Buffer+130+1,r19
	sts USARTtoUSB_Buffer+130,r18
	rjmp .L4
	.cfi_endproc
.LFE107:
	.size	RingBuffer_Remove.constprop.3, .-RingBuffer_Remove.constprop.3
	.section	.text.SetupHardware,"ax",@progbits
.global	SetupHardware
	.type	SetupHardware, @function
SetupHardware:
.LFB89:
	.file 4 "Arduino-serialusbkeyboard.c"
	.loc 4 189 0
	.cfi_startproc
	push r28
.LCFI0:
	.cfi_def_cfa_offset 3
	.cfi_offset 28, -2
	push r29
.LCFI1:
	.cfi_def_cfa_offset 4
	.cfi_offset 29, -3
/* prologue: function */
/* frame size = 0 */
/* stack size = 2 */
.L__stack_usage = 2
	.loc 4 191 0
	in r24,0x34
	andi r24,lo8(-9)
	out 0x34,r24
.LBB114:
.LBB115:
	.file 5 "/Applications/Arduino.app/Contents/Java/hardware/tools/avr/avr/include/avr/wdt.h"
	.loc 5 515 0
/* #APP */
 ;  515 "/Applications/Arduino.app/Contents/Java/hardware/tools/avr/avr/include/avr/wdt.h" 1
	in __tmp_reg__,__SREG__
	cli
	wdr
	lds r24,96
	ori r24,24
	sts 96,r24
	sts 96,__zero_reg__
	out __SREG__,__tmp_reg__
	
 ;  0 "" 2
.LVL9:
/* #NOAPP */
.LBE115:
.LBE114:
.LBB116:
.LBB117:
	.file 6 "../../LUFA/Drivers/Peripheral/Serial.h"
	.loc 6 102 0
	ldi r24,lo8(103)
	ldi r25,0
	sts 204+1,r25
	sts 204,r24
	.loc 6 104 0
	ldi r24,lo8(6)
	sts 202,r24
	.loc 6 105 0
	sts 200,__zero_reg__
	.loc 6 106 0
	ldi r28,lo8(-55)
	ldi r29,0
	ldi r24,lo8(24)
	st Y,r24
	.loc 6 108 0
	sbi 0xa,3
	.loc 6 109 0
	sbi 0xb,2
.LVL10:
.LBE117:
.LBE116:
.LBB118:
.LBB119:
	.loc 1 69 0
	in r24,0xa
	ori r24,lo8(48)
	out 0xa,r24
	.loc 1 70 0
	in r24,0xb
	ori r24,lo8(48)
	out 0xb,r24
.LBE119:
.LBE118:
	.loc 4 200 0
	call USB_Init
.LVL11:
	.loc 4 206 0
	sbi 0xb,7
	.loc 4 207 0
	sbi 0xa,7
	.loc 4 212 0
	st Y,__zero_reg__
	.loc 4 214 0
	ldi r24,lo8(-112)
	st Y,r24
/* epilogue start */
	.loc 4 216 0
	pop r29
	pop r28
	ret
	.cfi_endproc
.LFE89:
	.size	SetupHardware, .-SetupHardware
	.section	.text.EVENT_USB_Device_Connect,"ax",@progbits
.global	EVENT_USB_Device_Connect
	.type	EVENT_USB_Device_Connect, @function
EVENT_USB_Device_Connect:
.LFB90:
	.loc 4 222 0
	.cfi_startproc
/* prologue: function */
/* frame size = 0 */
/* stack size = 0 */
.L__stack_usage = 0
	.loc 4 224 0
	ldi r24,lo8(16)
	call LEDs_SetAllLEDs
.LVL12:
	.loc 4 227 0
	ldi r24,lo8(1)
	sts UsingReportProtocol,r24
/* epilogue start */
	.loc 4 228 0
	ret
	.cfi_endproc
.LFE90:
	.size	EVENT_USB_Device_Connect, .-EVENT_USB_Device_Connect
	.section	.text.EVENT_USB_Device_Disconnect,"ax",@progbits
.global	EVENT_USB_Device_Disconnect
	.type	EVENT_USB_Device_Disconnect, @function
EVENT_USB_Device_Disconnect:
.LFB91:
	.loc 4 234 0
	.cfi_startproc
/* prologue: function */
/* frame size = 0 */
/* stack size = 0 */
.L__stack_usage = 0
	.loc 4 236 0
	ldi r24,lo8(32)
	jmp LEDs_SetAllLEDs
.LVL13:
	.cfi_endproc
.LFE91:
	.size	EVENT_USB_Device_Disconnect, .-EVENT_USB_Device_Disconnect
	.section	.text.EVENT_USB_Device_ConfigurationChanged,"ax",@progbits
.global	EVENT_USB_Device_ConfigurationChanged
	.type	EVENT_USB_Device_ConfigurationChanged, @function
EVENT_USB_Device_ConfigurationChanged:
.LFB92:
	.loc 4 241 0
	.cfi_startproc
	push r28
.LCFI2:
	.cfi_def_cfa_offset 3
	.cfi_offset 28, -2
/* prologue: function */
/* frame size = 0 */
/* stack size = 1 */
.L__stack_usage = 1
.LVL14:
.LBB130:
.LBB131:
	.file 7 "../../LUFA/Drivers/USB/HighLevel/../LowLevel/Endpoint.h"
	.loc 7 1335 0
	ldi r20,lo8(2)
	ldi r22,lo8(-63)
	ldi r24,lo8(1)
	call Endpoint_ConfigureEndpoint_Prv
.LVL15:
	mov r28,r24
.LVL16:
.LBE131:
.LBE130:
.LBB132:
.LBB133:
	ldi r20,lo8(2)
	ldi r22,lo8(-64)
	ldi r24,lo8(2)
	call Endpoint_ConfigureEndpoint_Prv
.LVL17:
.LBE133:
.LBE132:
.LBB134:
.LBB135:
	.file 8 "../../LUFA/Drivers/USB/HighLevel/../LowLevel/Device.h"
	.loc 8 150 0
	lds r25,226
	ori r25,lo8(4)
	sts 226,r25
.LBE135:
.LBE134:
	.loc 4 257 0
	tst r24
	breq .L12
	ldi r24,lo8(16)
.LVL18:
	cpse r28,__zero_reg__
	rjmp .L9
.L12:
	ldi r24,lo8(32)
.L9:
/* epilogue start */
	.loc 4 258 0 discriminator 4
	pop r28
	.loc 4 257 0 discriminator 4
	jmp LEDs_SetAllLEDs
.LVL19:
	.cfi_endproc
.LFE92:
	.size	EVENT_USB_Device_ConfigurationChanged, .-EVENT_USB_Device_ConfigurationChanged
	.section	.text.EVENT_USB_Device_StartOfFrame,"ax",@progbits
.global	EVENT_USB_Device_StartOfFrame
	.type	EVENT_USB_Device_StartOfFrame, @function
EVENT_USB_Device_StartOfFrame:
.LFB94:
	.loc 4 361 0
	.cfi_startproc
/* prologue: function */
/* frame size = 0 */
/* stack size = 0 */
.L__stack_usage = 0
	.loc 4 363 0
	lds r24,IdleMSRemaining
	lds r25,IdleMSRemaining+1
	sbiw r24,0
	breq .L16
	.loc 4 364 0
	sbiw r24,1
	sts IdleMSRemaining+1,r25
	sts IdleMSRemaining,r24
.L16:
/* epilogue start */
	.loc 4 365 0
	ret
	.cfi_endproc
.LFE94:
	.size	EVENT_USB_Device_StartOfFrame, .-EVENT_USB_Device_StartOfFrame
	.section	.text.CreateKeyboardReport,"ax",@progbits
.global	CreateKeyboardReport
	.type	CreateKeyboardReport, @function
CreateKeyboardReport:
.LFB95:
	.loc 4 372 0
	.cfi_startproc
.LVL20:
	push r28
.LCFI3:
	.cfi_def_cfa_offset 3
	.cfi_offset 28, -2
	push r29
.LCFI4:
	.cfi_def_cfa_offset 4
	.cfi_offset 29, -3
/* prologue: function */
/* frame size = 0 */
/* stack size = 2 */
.L__stack_usage = 2
	movw r30,r24
	.loc 4 377 0
	ldi r24,lo8(8)
.LVL21:
	movw r26,r30
	0:
	st X+,__zero_reg__
	dec r24
	brne 0b
	.loc 4 381 0
	st Z,__zero_reg__
	.loc 4 382 0
	lds r24,scancode_buffer+224
	cpi r24,lo8(85)
	brne .L22
	.loc 4 383 0
	ldi r24,lo8(1)
	st Z,r24
.L22:
	.loc 4 384 0
	lds r24,scancode_buffer+225
	cpi r24,lo8(85)
	brne .L23
	.loc 4 385 0
	ld r24,Z
	ori r24,lo8(2)
	st Z,r24
.L23:
	.loc 4 386 0
	lds r24,scancode_buffer+226
	cpi r24,lo8(85)
	brne .L24
	.loc 4 387 0
	ld r24,Z
	ori r24,lo8(4)
	st Z,r24
.L24:
	.loc 4 388 0
	lds r24,scancode_buffer+227
	cpi r24,lo8(85)
	brne .L25
	.loc 4 389 0
	ld r24,Z
	ori r24,lo8(8)
	st Z,r24
.L25:
	.loc 4 390 0
	lds r24,scancode_buffer+228
	cpi r24,lo8(85)
	brne .L26
	.loc 4 391 0
	ld r24,Z
	ori r24,lo8(16)
	st Z,r24
.L26:
	.loc 4 392 0
	lds r24,scancode_buffer+229
	cpi r24,lo8(85)
	brne .L27
	.loc 4 393 0
	ld r24,Z
	ori r24,lo8(32)
	st Z,r24
.L27:
	.loc 4 394 0
	lds r24,scancode_buffer+230
	cpi r24,lo8(85)
	brne .L28
	.loc 4 395 0
	ld r24,Z
	ori r24,lo8(64)
	st Z,r24
.L28:
	.loc 4 396 0
	lds r24,scancode_buffer+231
	cpi r24,lo8(85)
	brne .L29
	.loc 4 397 0
	ld r24,Z
	ori r24,lo8(-128)
	st Z,r24
.L29:
	ldi r26,lo8(scancode_buffer)
	ldi r27,hi8(scancode_buffer)
.LVL22:
	.loc 4 372 0 discriminator 3
	ldi r24,0
	ldi r25,0
.LVL23:
.L32:
.LBB136:
	.loc 4 400 0
	ld r18,X+
	cpi r18,lo8(85)
	brne .L30
.LVL24:
	.loc 4 401 0
	movw r28,r30
	add r28,r25
	adc r29,__zero_reg__
	std Y+2,r24
	subi r25,lo8(-(1))
.LVL25:
.L30:
	.loc 4 399 0 discriminator 2
	subi r24,lo8(-(1))
.LVL26:
	cpi r25,lo8(6)
	brne .L31
.L21:
/* epilogue start */
.LBE136:
	.loc 4 404 0
	pop r29
	pop r28
	ret
.L31:
.LBB137:
	.loc 4 399 0 discriminator 3
	cpi r24,lo8(-128)
	brne .L32
	rjmp .L21
.LBE137:
	.cfi_endproc
.LFE95:
	.size	CreateKeyboardReport, .-CreateKeyboardReport
	.section	.text.ProcessLEDReport,"ax",@progbits
.global	ProcessLEDReport
	.type	ProcessLEDReport, @function
ProcessLEDReport:
.LFB96:
	.loc 4 411 0
	.cfi_startproc
.LVL27:
/* prologue: function */
/* frame size = 0 */
/* stack size = 0 */
.L__stack_usage = 0
	.loc 4 414 0
	sbrs r24,0
	rjmp .L37
	.loc 4 415 0
	ldi r24,lo8(48)
.LVL28:
.L36:
	.loc 4 424 0
	jmp LEDs_SetAllLEDs
.LVL29:
.L37:
	.loc 4 412 0
	ldi r24,lo8(16)
.LVL30:
	rjmp .L36
	.cfi_endproc
.LFE96:
	.size	ProcessLEDReport, .-ProcessLEDReport
	.section	.text.EVENT_USB_Device_UnhandledControlRequest,"ax",@progbits
.global	EVENT_USB_Device_UnhandledControlRequest
	.type	EVENT_USB_Device_UnhandledControlRequest, @function
EVENT_USB_Device_UnhandledControlRequest:
.LFB93:
	.loc 4 262 0
	.cfi_startproc
	push r17
.LCFI5:
	.cfi_def_cfa_offset 3
	.cfi_offset 17, -2
	push r28
.LCFI6:
	.cfi_def_cfa_offset 4
	.cfi_offset 28, -3
	push r29
.LCFI7:
	.cfi_def_cfa_offset 5
	.cfi_offset 29, -4
	in r28,__SP_L__
	in r29,__SP_H__
.LCFI8:
	.cfi_def_cfa_register 28
	sbiw r28,8
.LCFI9:
	.cfi_def_cfa_offset 13
	in __tmp_reg__,__SREG__
	cli
	out __SP_H__,r29
	out __SREG__,__tmp_reg__
	out __SP_L__,r28
/* prologue: function */
/* frame size = 8 */
/* stack size = 11 */
.L__stack_usage = 11
	.loc 4 267 0
	lds r24,USB_ControlRequest+1
	cpi r24,lo8(3)
	brne .+2
	rjmp .L40
	brsh .L41
	cpi r24,lo8(1)
	breq .L42
	cpi r24,lo8(2)
	brne .+2
	rjmp .L43
.L38:
/* epilogue start */
	.loc 4 357 0
	adiw r28,8
	in __tmp_reg__,__SREG__
	cli
	out __SP_H__,r29
	out __SREG__,__tmp_reg__
	out __SP_L__,r28
	pop r29
	pop r28
	pop r17
	ret
.L41:
	.loc 4 267 0
	cpi r24,lo8(10)
	brne .+2
	rjmp .L44
	cpi r24,lo8(11)
	brne .+2
	rjmp .L45
	cpi r24,lo8(9)
	brne .L38
	.loc 4 286 0
	lds r24,USB_ControlRequest
	cpi r24,lo8(33)
	brne .L38
.LBB138:
.LBB139:
.LBB140:
	.loc 7 442 0
	lds r24,232
	andi r24,lo8(-9)
	sts 232,r24
.L49:
.LBE140:
.LBE139:
.LBB141:
.LBB142:
	.loc 7 417 0
	lds r24,232
.LBE142:
.LBE141:
	.loc 4 291 0
	sbrs r24,2
	rjmp .L50
.LBB143:
.LBB144:
	.loc 7 550 0
	lds r17,241
.LBE144:
.LBE143:
.LBB145:
.LBB146:
	.loc 7 469 0
	lds r24,232
	andi r24,lo8(123)
	sts 232,r24
.LBE146:
.LBE145:
	.loc 4 301 0
	call Endpoint_ClearStatusStage
.LVL31:
	.loc 4 304 0
	mov r24,r17
	call ProcessLEDReport
.LVL32:
	rjmp .L38
.L42:
.LBE138:
	.loc 4 270 0
	lds r24,USB_ControlRequest
	cpi r24,lo8(-95)
	brne .L38
.LBB147:
	.loc 4 275 0
	movw r24,r28
	adiw r24,1
	call CreateKeyboardReport
.LVL33:
.LBB148:
.LBB149:
	.loc 7 442 0
	lds r24,232
	andi r24,lo8(-9)
	sts 232,r24
.LBE149:
.LBE148:
	.loc 4 280 0
	ldi r22,lo8(8)
	ldi r23,0
	movw r24,r28
	adiw r24,1
	call Endpoint_Write_Control_Stream_LE
.LVL34:
.LBB150:
.LBB151:
	.loc 7 469 0
	lds r24,232
	andi r24,lo8(123)
	sts 232,r24
	rjmp .L38
.L50:
.LBE151:
.LBE150:
.LBE147:
.LBB152:
	.loc 4 293 0
	in r24,0x1e
	cpse r24,__zero_reg__
	rjmp .L49
	rjmp .L38
.L40:
.LBE152:
	.loc 4 309 0
	lds r24,USB_ControlRequest
	cpi r24,lo8(-95)
	breq .+2
	rjmp .L38
.LBB153:
.LBB154:
	.loc 7 442 0
	lds r24,232
	andi r24,lo8(-9)
	sts 232,r24
.LBE154:
.LBE153:
	.loc 4 314 0
	lds r24,UsingReportProtocol
.LVL35:
.L55:
.LBB155:
.LBB156:
	.loc 7 562 0
	sts 241,r24
.LVL36:
.LBE156:
.LBE155:
.LBB157:
.LBB158:
	.loc 7 454 0
	lds r24,232
	andi r24,lo8(126)
	sts 232,r24
.LBE158:
.LBE157:
	.loc 4 352 0
	call Endpoint_ClearStatusStage
.LVL37:
	rjmp .L38
.L45:
	.loc 4 322 0
	lds r24,USB_ControlRequest
	cpi r24,lo8(33)
	breq .+2
	rjmp .L38
.LBB159:
.LBB160:
	.loc 7 442 0
	lds r24,232
	andi r24,lo8(-9)
	sts 232,r24
.LBE160:
.LBE159:
	.loc 4 325 0
	call Endpoint_ClearStatusStage
.LVL38:
	.loc 4 328 0
	ldi r24,lo8(1)
	lds r18,USB_ControlRequest+2
	lds r19,USB_ControlRequest+2+1
	or r18,r19
	brne .L51
	ldi r24,0
.L51:
	sts UsingReportProtocol,r24
	rjmp .L38
.L44:
	.loc 4 333 0
	lds r24,USB_ControlRequest
	cpi r24,lo8(33)
	breq .+2
	rjmp .L38
.LBB161:
.LBB162:
	.loc 7 442 0
	lds r24,232
	andi r24,lo8(-9)
	sts 232,r24
.LBE162:
.LBE161:
	.loc 4 336 0
	call Endpoint_ClearStatusStage
.LVL39:
	.loc 4 339 0
	lds r24,USB_ControlRequest+2
	lds r25,USB_ControlRequest+2+1
	ldi r19,6
	1:
	lsr r25
	ror r24
	dec r19
	brne 1b
	andi r24,252
	andi r25,3
	sts IdleCount+1,r25
	sts IdleCount,r24
	rjmp .L38
.L43:
	.loc 4 344 0
	lds r24,USB_ControlRequest
	cpi r24,lo8(-95)
	breq .+2
	rjmp .L38
.LBB163:
.LBB164:
	.loc 7 442 0
	lds r24,232
	andi r24,lo8(-9)
	sts 232,r24
.LBE164:
.LBE163:
	.loc 4 349 0
	lds r24,IdleCount
	lds r25,IdleCount+1
	lsr r25
	ror r24
	lsr r25
	ror r24
	rjmp .L55
	.cfi_endproc
.LFE93:
	.size	EVENT_USB_Device_UnhandledControlRequest, .-EVENT_USB_Device_UnhandledControlRequest
	.section	.text.SendNextReport,"ax",@progbits
.global	SendNextReport
	.type	SendNextReport, @function
SendNextReport:
.LFB97:
	.loc 4 429 0
	.cfi_startproc
	push r28
.LCFI10:
	.cfi_def_cfa_offset 3
	.cfi_offset 28, -2
	push r29
.LCFI11:
	.cfi_def_cfa_offset 4
	.cfi_offset 29, -3
	in r28,__SP_L__
	in r29,__SP_H__
.LCFI12:
	.cfi_def_cfa_register 28
	sbiw r28,8
.LCFI13:
	.cfi_def_cfa_offset 12
	in __tmp_reg__,__SREG__
	cli
	out __SP_H__,r29
	out __SREG__,__tmp_reg__
	out __SP_L__,r28
/* prologue: function */
/* frame size = 8 */
/* stack size = 10 */
.L__stack_usage = 10
.LVL40:
	.loc 4 435 0
	movw r24,r28
	adiw r24,1
	call CreateKeyboardReport
.LVL41:
	.loc 4 438 0
	ldi r20,lo8(8)
	ldi r21,0
	movw r22,r28
	subi r22,-1
	sbci r23,-1
	ldi r24,lo8(PrevKeyboardReportData.2820)
	ldi r25,hi8(PrevKeyboardReportData.2820)
	call memcmp
.LVL42:
	ldi r18,lo8(1)
	or r24,r25
	brne .L57
	ldi r18,0
.L57:
.LVL43:
	.loc 4 441 0
	lds r24,IdleCount
	lds r25,IdleCount+1
	sbiw r24,0
	breq .L58
	.loc 4 441 0 is_stmt 0 discriminator 1
	lds r20,IdleMSRemaining
	lds r21,IdleMSRemaining+1
	or r20,r21
	brne .L58
	.loc 4 444 0 is_stmt 1
	sts IdleMSRemaining+1,r25
	sts IdleMSRemaining,r24
.LVL44:
	.loc 4 447 0
	ldi r18,lo8(1)
.LVL45:
.L58:
.LBB165:
.LBB166:
	.loc 7 299 0
	ldi r24,lo8(1)
	sts 233,r24
.LVL46:
.LBE166:
.LBE165:
.LBB167:
.LBB168:
	.loc 7 358 0
	lds r24,232
.LBE168:
.LBE167:
	.loc 4 454 0
	sbrs r24,5
	rjmp .L56
	.loc 4 454 0 is_stmt 0 discriminator 1
	tst r18
	breq .L56
	.loc 4 457 0 is_stmt 1
	ldi r24,lo8(8)
	movw r30,r28
	adiw r30,1
	ldi r26,lo8(PrevKeyboardReportData.2820)
	ldi r27,hi8(PrevKeyboardReportData.2820)
	0:
	ld r0,Z+
	st X+,r0
	dec r24
	brne 0b
	.loc 4 460 0
	ldi r21,0
	ldi r20,0
	ldi r22,lo8(8)
	ldi r23,0
	movw r24,r28
	adiw r24,1
	call Endpoint_Write_Stream_LE
.LVL47:
.LBB169:
.LBB170:
	.loc 7 454 0
	lds r24,232
	andi r24,lo8(126)
	sts 232,r24
.L56:
/* epilogue start */
.LBE170:
.LBE169:
	.loc 4 465 0
	adiw r28,8
	in __tmp_reg__,__SREG__
	cli
	out __SP_H__,r29
	out __SREG__,__tmp_reg__
	out __SP_L__,r28
	pop r29
	pop r28
	ret
	.cfi_endproc
.LFE97:
	.size	SendNextReport, .-SendNextReport
	.section	.text.ReceiveNextReport,"ax",@progbits
.global	ReceiveNextReport
	.type	ReceiveNextReport, @function
ReceiveNextReport:
.LFB98:
	.loc 4 469 0
	.cfi_startproc
/* prologue: function */
/* frame size = 0 */
/* stack size = 0 */
.L__stack_usage = 0
.LVL48:
.LBB171:
.LBB172:
	.loc 7 299 0
	ldi r24,lo8(2)
	sts 233,r24
.LVL49:
.LBE172:
.LBE171:
.LBB173:
.LBB174:
	.loc 7 417 0
	lds r24,232
.LBE174:
.LBE173:
	.loc 4 474 0
	sbrs r24,2
	rjmp .L69
.LBB175:
.LBB176:
	.loc 7 358 0
	lds r24,232
.LBE176:
.LBE175:
	.loc 4 477 0
	sbrs r24,5
	rjmp .L71
.LBB177:
.LBB178:
.LBB179:
	.loc 7 550 0
	lds r24,241
.LBE179:
.LBE178:
	.loc 4 483 0
	call ProcessLEDReport
.LVL50:
.L71:
.LBE177:
.LBB180:
.LBB181:
	.loc 7 469 0
	lds r24,232
	andi r24,lo8(123)
	sts 232,r24
.L69:
/* epilogue start */
.LBE181:
.LBE180:
	.loc 4 489 0
	ret
	.cfi_endproc
.LFE98:
	.size	ReceiveNextReport, .-ReceiveNextReport
	.section	.text.HID_Task,"ax",@progbits
.global	HID_Task
	.type	HID_Task, @function
HID_Task:
.LFB99:
	.loc 4 493 0
	.cfi_startproc
/* prologue: function */
/* frame size = 0 */
/* stack size = 0 */
.L__stack_usage = 0
	.loc 4 495 0
	in r24,0x1e
	cpi r24,lo8(4)
	brne .L78
	.loc 4 499 0
	call SendNextReport
.LVL51:
	.loc 4 502 0
	jmp ReceiveNextReport
.LVL52:
.L78:
/* epilogue start */
	.loc 4 503 0
	ret
	.cfi_endproc
.LFE99:
	.size	HID_Task, .-HID_Task
	.section	.text.startup.main,"ax",@progbits
.global	main
	.type	main, @function
main:
.LFB88:
	.loc 4 101 0
	.cfi_startproc
/* prologue: function */
/* frame size = 0 */
/* stack size = 0 */
.L__stack_usage = 0
	.loc 4 102 0
	call SetupHardware
.LVL53:
.LBB197:
.LBB198:
	.loc 2 87 0
	in r18,__SREG__
.LVL54:
.LBB199:
.LBB200:
	.loc 3 50 0
/* #APP */
 ;  50 "/Applications/Arduino.app/Contents/Java/hardware/tools/avr/avr/include/util/atomic.h" 1
	cli
 ;  0 "" 2
.LVL55:
/* #NOAPP */
.LBE200:
.LBE199:
	.loc 2 89 0
	ldi r24,lo8(USARTtoUSB_Buffer)
	ldi r25,hi8(USARTtoUSB_Buffer)
	sts USARTtoUSB_Buffer+128+1,r25
	sts USARTtoUSB_Buffer+128,r24
	.loc 2 90 0
	sts USARTtoUSB_Buffer+130+1,r25
	sts USARTtoUSB_Buffer+130,r24
.LVL56:
.LBB201:
.LBB202:
	.loc 3 70 0
	out __SREG__,r18
	.loc 3 71 0
.LVL57:
.LBE202:
.LBE201:
.LBE198:
.LBE197:
	.loc 4 107 0
	ldi r24,lo8(32)
	call LEDs_SetAllLEDs
.LVL58:
	.loc 4 108 0
/* #APP */
 ;  108 "Arduino-serialusbkeyboard.c" 1
	sei
 ;  0 "" 2
.LVL59:
/* #NOAPP */
.L87:
.LBB203:
.LBB204:
.LBB205:
.LBB206:
	.loc 2 111 0
	in r24,__SREG__
.LVL60:
.LBB207:
.LBB208:
	.loc 3 50 0
/* #APP */
 ;  50 "/Applications/Arduino.app/Contents/Java/hardware/tools/avr/avr/include/util/atomic.h" 1
	cli
 ;  0 "" 2
.LVL61:
/* #NOAPP */
.LBE208:
.LBE207:
	.loc 2 113 0
	lds r28,USARTtoUSB_Buffer+132
.LVL62:
.LBB209:
.LBB210:
	.loc 3 70 0
	out __SREG__,r24
	.loc 3 71 0
.LVL63:
.LBE210:
.LBE209:
.LBE206:
.LBE205:
.LBE204:
	.loc 4 161 0
	cpi r28,lo8(97)
	brlo .L85
.L81:
.LVL64:
	.loc 4 162 0
.LVL65:
	subi r28,1
	brcc .L83
.L85:
	.loc 4 165 0
	cpi r28,lo8(3)
	brsh .L86
	.loc 4 181 0
	call HID_Task
.LVL66:
	.loc 4 182 0
	call USB_USBTask
.LVL67:
.LBE203:
	.loc 4 111 0
	rjmp .L87
.L83:
.LBB211:
	.loc 4 163 0
	call RingBuffer_Remove.constprop.3
.LVL68:
	sts header,r24
	rjmp .L81
.L86:
	.loc 4 166 0
	ldi r29,lo8(-1)
	add r29,r28
.LVL69:
	.loc 4 167 0
	call RingBuffer_Remove.constprop.3
.LVL70:
	sts header,r24
	.loc 4 168 0
	cpse r24,__zero_reg__
	rjmp .L88
.LVL71:
	.loc 4 170 0
	call RingBuffer_Remove.constprop.3
.LVL72:
	sts scancode,r24
	.loc 4 172 0
	subi r28,lo8(-(-3))
.LVL73:
	.loc 4 173 0
	call RingBuffer_Remove.constprop.3
.LVL74:
	sts press_release,r24
	.loc 4 175 0
	lds r30,scancode
	ldi r31,0
	subi r30,lo8(-(scancode_buffer))
	sbci r31,hi8(-(scancode_buffer))
	st Z,r24
	rjmp .L85
.LVL75:
.L88:
	.loc 4 166 0
	mov r28,r29
	rjmp .L85
.LBE211:
	.cfi_endproc
.LFE88:
	.size	main, .-main
	.section	.text.__vector_23,"ax",@progbits
.global	__vector_23
	.type	__vector_23, @function
__vector_23:
.LFB100:
	.loc 4 559 0
	.cfi_startproc
	push r1
.LCFI14:
	.cfi_def_cfa_offset 3
	.cfi_offset 1, -2
	push r0
.LCFI15:
	.cfi_def_cfa_offset 4
	.cfi_offset 0, -3
	in r0,__SREG__
	push r0
	clr __zero_reg__
	push r18
.LCFI16:
	.cfi_def_cfa_offset 5
	.cfi_offset 18, -4
	push r24
.LCFI17:
	.cfi_def_cfa_offset 6
	.cfi_offset 24, -5
	push r25
.LCFI18:
	.cfi_def_cfa_offset 7
	.cfi_offset 25, -6
	push r30
.LCFI19:
	.cfi_def_cfa_offset 8
	.cfi_offset 30, -7
	push r31
.LCFI20:
	.cfi_def_cfa_offset 9
	.cfi_offset 31, -8
/* prologue: Signal */
/* frame size = 0 */
/* stack size = 8 */
.L__stack_usage = 8
	.loc 4 560 0
	lds r24,206
.LVL76:
	.loc 4 562 0
	in r25,0x1e
	cpi r25,lo8(4)
	brne .L90
.LVL77:
.LBB219:
.LBB220:
	.loc 2 161 0
	lds r30,USARTtoUSB_Buffer+128
	lds r31,USARTtoUSB_Buffer+128+1
	st Z,r24
	.loc 2 163 0
	lds r30,USARTtoUSB_Buffer+128
	lds r31,USARTtoUSB_Buffer+128+1
	movw r24,r30
.LVL78:
	adiw r24,1
	ldi r18,hi8(USARTtoUSB_Buffer+128)
	cpi r24,lo8(USARTtoUSB_Buffer+128)
	cpc r25,r18
	breq .L92
	sts USARTtoUSB_Buffer+128+1,r25
	sts USARTtoUSB_Buffer+128,r24
.L93:
.LBB221:
	.loc 2 166 0
	in r25,__SREG__
.LVL79:
.LBB222:
.LBB223:
	.loc 3 50 0
/* #APP */
 ;  50 "/Applications/Arduino.app/Contents/Java/hardware/tools/avr/avr/include/util/atomic.h" 1
	cli
 ;  0 "" 2
.LVL80:
/* #NOAPP */
.LBE223:
.LBE222:
	.loc 2 168 0
	lds r24,USARTtoUSB_Buffer+132
	subi r24,lo8(-(1))
	sts USARTtoUSB_Buffer+132,r24
.LVL81:
.LBB224:
.LBB225:
	.loc 3 70 0
	out __SREG__,r25
	.loc 3 71 0
.LVL82:
.L90:
/* epilogue start */
.LBE225:
.LBE224:
.LBE221:
.LBE220:
.LBE219:
	.loc 4 564 0
	pop r31
	pop r30
	pop r25
	pop r24
	pop r18
	pop r0
	out __SREG__,r0
	pop r0
	pop r1
	reti
.LVL83:
.L92:
.LBB227:
.LBB226:
	.loc 2 164 0
	ldi r24,lo8(USARTtoUSB_Buffer)
	ldi r25,hi8(USARTtoUSB_Buffer)
	std Z+2,r25
	std Z+1,r24
	rjmp .L93
.LBE226:
.LBE227:
	.cfi_endproc
.LFE100:
	.size	__vector_23, .-__vector_23
	.local	PrevKeyboardReportData.2820
	.comm	PrevKeyboardReportData.2820,8,1
	.comm	press_release,1,1
	.comm	scancode,1,1
	.comm	header,1,1
.global	scancode_buffer
	.section .bss
	.type	scancode_buffer, @object
	.size	scancode_buffer, 256
scancode_buffer:
	.zero	256
.global	IdleMSRemaining
	.type	IdleMSRemaining, @object
	.size	IdleMSRemaining, 2
IdleMSRemaining:
	.zero	2
.global	IdleCount
	.data
	.type	IdleCount, @object
	.size	IdleCount, 2
IdleCount:
	.word	500
.global	UsingReportProtocol
	.type	UsingReportProtocol, @object
	.size	UsingReportProtocol, 1
UsingReportProtocol:
	.byte	1
	.comm	USARTtoUSB_Buffer,133,1
	.text
.Letext0:
	.file 9 "/Applications/Arduino.app/Contents/Java/hardware/tools/avr/avr/include/stdint.h"
	.file 10 "../../LUFA/Drivers/USB/HighLevel/../LowLevel/../HighLevel/StdRequestType.h"
	.file 11 "../../LUFA/Drivers/USB/HighLevel/../LowLevel/../HighLevel/DeviceStandardReq.h"
	.file 12 "../../LUFA/Drivers/USB/HighLevel/USBTask.h"
	.file 13 "Arduino-serialusbkeyboard.h"
	.file 14 "/Applications/Arduino.app/Contents/Java/hardware/tools/avr/avr/include/string.h"
	.file 15 "../../LUFA/Drivers/USB/HighLevel/../LowLevel/USBController.h"